
AVRASM ver. 2.2.7  C:\Users\marti\Desktop\2019-1c-trabajo-practico-inclinador-de-vaso-master\codigo\shiva\main.asm Tue Jun 25 20:19:04 2019

[builtin](2): Including file 'C:/Program Files (x86)\Atmel\Studio\7.0\Packs\atmel\ATmega_DFP\1.2.209\avrasm\inc\m328pdef.inc'
C:\Users\marti\Desktop\2019-1c-trabajo-practico-inclinador-de-vaso-master\codigo\shiva\main.asm(11): Including file 'C:/Program Files (x86)\Atmel\Studio\7.0\Packs\atmel\ATmega_DFP\1.2.209\avrasm\inc\m328pdef.inc'
C:\Users\marti\Desktop\2019-1c-trabajo-practico-inclinador-de-vaso-master\codigo\shiva\main.asm(12): Including file 'C:\Users\marti\Desktop\2019-1c-trabajo-practico-inclinador-de-vaso-master\codigo\shiva\hx711.inc'
C:\Users\marti\Desktop\2019-1c-trabajo-practico-inclinador-de-vaso-master\codigo\shiva\main.asm(13): Including file 'C:\Users\marti\Desktop\2019-1c-trabajo-practico-inclinador-de-vaso-master\codigo\shiva\input.inc'
C:\Users\marti\Desktop\2019-1c-trabajo-practico-inclinador-de-vaso-master\codigo\shiva\main.asm(14): Including file 'C:\Users\marti\Desktop\2019-1c-trabajo-practico-inclinador-de-vaso-master\codigo\shiva\configuracion.inc'
C:\Users\marti\Desktop\2019-1c-trabajo-practico-inclinador-de-vaso-master\codigo\shiva\main.asm(15): Including file 'C:\Users\marti\Desktop\2019-1c-trabajo-practico-inclinador-de-vaso-master\codigo\shiva\output.inc'
C:\Users\marti\Desktop\2019-1c-trabajo-practico-inclinador-de-vaso-master\codigo\shiva\main.asm(18): Including file 'C:\Users\marti\Desktop\2019-1c-trabajo-practico-inclinador-de-vaso-master\codigo\shiva\hx711.asm'
C:\Users\marti\Desktop\2019-1c-trabajo-practico-inclinador-de-vaso-master\codigo\shiva\main.asm(19): Including file 'C:\Users\marti\Desktop\2019-1c-trabajo-practico-inclinador-de-vaso-master\codigo\shiva\configuracion.asm'
C:\Users\marti\Desktop\2019-1c-trabajo-practico-inclinador-de-vaso-master\codigo\shiva\main.asm(20): Including file 'C:\Users\marti\Desktop\2019-1c-trabajo-practico-inclinador-de-vaso-master\codigo\shiva\input.asm'
C:\Users\marti\Desktop\2019-1c-trabajo-practico-inclinador-de-vaso-master\codigo\shiva\main.asm(21): Including file 'C:\Users\marti\Desktop\2019-1c-trabajo-practico-inclinador-de-vaso-master\codigo\shiva\output.asm'
[builtin](2): Including file 'C:/Program Files (x86)\Atmel\Studio\7.0\Packs\atmel\ATmega_DFP\1.2.209\avrasm\inc\m328pdef.inc'
C:\Users\marti\Desktop\2019-1c-trabajo-practico-inclinador-de-vaso-master\codigo\shiva\main.asm(11): Including file 'C:/Program Files (x86)\Atmel\Studio\7.0\Packs\atmel\ATmega_DFP\1.2.209\avrasm\inc\m328pdef.inc'
C:\Users\marti\Desktop\2019-1c-trabajo-practico-inclinador-de-vaso-master\codigo\shiva\main.asm(12): Including file 'C:\Users\marti\Desktop\2019-1c-trabajo-practico-inclinador-de-vaso-master\codigo\shiva\hx711.inc'
C:\Users\marti\Desktop\2019-1c-trabajo-practico-inclinador-de-vaso-master\codigo\shiva\main.asm(13): Including file 'C:\Users\marti\Desktop\2019-1c-trabajo-practico-inclinador-de-vaso-master\codigo\shiva\input.inc'
C:\Users\marti\Desktop\2019-1c-trabajo-practico-inclinador-de-vaso-master\codigo\shiva\main.asm(14): Including file 'C:\Users\marti\Desktop\2019-1c-trabajo-practico-inclinador-de-vaso-master\codigo\shiva\configuracion.inc'
C:\Users\marti\Desktop\2019-1c-trabajo-practico-inclinador-de-vaso-master\codigo\shiva\main.asm(15): Including file 'C:\Users\marti\Desktop\2019-1c-trabajo-practico-inclinador-de-vaso-master\codigo\shiva\output.inc'
C:\Users\marti\Desktop\2019-1c-trabajo-practico-inclinador-de-vaso-master\codigo\shiva\main.asm(18): Including file 'C:\Users\marti\Desktop\2019-1c-trabajo-practico-inclinador-de-vaso-master\codigo\shiva\hx711.asm'
C:\Users\marti\Desktop\2019-1c-trabajo-practico-inclinador-de-vaso-master\codigo\shiva\main.asm(19): Including file 'C:\Users\marti\Desktop\2019-1c-trabajo-practico-inclinador-de-vaso-master\codigo\shiva\configuracion.asm'
C:\Users\marti\Desktop\2019-1c-trabajo-practico-inclinador-de-vaso-master\codigo\shiva\main.asm(20): Including file 'C:\Users\marti\Desktop\2019-1c-trabajo-practico-inclinador-de-vaso-master\codigo\shiva\input.asm'
C:\Users\marti\Desktop\2019-1c-trabajo-practico-inclinador-de-vaso-master\codigo\shiva\main.asm(21): Including file 'C:\Users\marti\Desktop\2019-1c-trabajo-practico-inclinador-de-vaso-master\codigo\shiva\output.asm'
                                 
                                 ;-------------------------------------------------------------------------
                                 
                                 ;***** Created: 2011-02-09 12:03 ******* Source: ATmega328P.xml **********
                                 ;*************************************************************************
                                 ;* A P P L I C A T I O N   N O T E   F O R   T H E   A V R   F A M I L Y
                                 ;* 
                                 ;* Number            : AVR000
                                 ;* File Name         : "m328Pdef.inc"
                                 ;* Title             : Register/Bit Definitions for the ATmega328P
                                 ;* Date              : 2011-02-09
                                 ;* Version           : 2.35
                                 ;* Support E-mail    : avr@atmel.com
                                 ;* Target MCU        : ATmega328P
                                 ;* 
                                 ;* DESCRIPTION
                                 ;* When including this file in the assembly program file, all I/O register 
                                 ;* names and I/O register bit names appearing in the data book can be used.
                                 ;* In addition, the six registers forming the three data pointers X, Y and 
                                 ;* Z have been assigned names XL - ZH. Highest RAM address for Internal 
                                 ;* SRAM is also defined 
                                 ;* 
                                 ;* The Register names are represented by their hexadecimal address.
                                 ;* 
                                 ;* The Register Bit names are represented by their bit number (0-7).
                                 ;* 
                                 ;* Please observe the difference in using the bit names with instructions
                                 ;* such as "sbr"/"cbr" (set/clear bit in register) and "sbrs"/"sbrc"
                                 ;* (skip if bit in register set/cleared). The following example illustrates
                                 ;* this:
                                 ;* 
                                 ;* in    r16,PORTB             ;read PORTB latch
                                 ;* sbr   r16,(1<<PB6)+(1<<PB5) ;set PB6 and PB5 (use masks, not bit#)
                                 ;* out   PORTB,r16             ;output to PORTB
                                 ;* 
                                 ;* in    r16,TIFR              ;read the Timer Interrupt Flag Register
                                 ;* sbrc  r16,TOV0              ;test the overflow flag (use bit#)
                                 ;* rjmp  TOV0_is_set           ;jump if set
                                 ;* ...                         ;otherwise do something else
                                 ;*************************************************************************
                                 
                                 #ifndef _M328PDEF_INC_
                                 #define _M328PDEF_INC_
                                 
                                 
                                 #pragma partinc 0
                                 
                                 ; ***** SPECIFY DEVICE ***************************************************
                                 .device ATmega328P
                                 #pragma AVRPART ADMIN PART_NAME ATmega328P
                                 .equ	SIGNATURE_000	= 0x1e
                                 .equ	SIGNATURE_001	= 0x95
                                 .equ	SIGNATURE_002	= 0x0f
                                 
                                 #pragma AVRPART CORE CORE_VERSION V2E
                                 
                                 
                                 ; ***** I/O REGISTER DEFINITIONS *****************************************
                                 ; NOTE:
                                 ; Definitions marked "MEMORY MAPPED"are extended I/O ports
                                 ; and cannot be used with IN/OUT instructions
                                 .equ	UDR0	= 0xc6	; MEMORY MAPPED
                                 .equ	UBRR0L	= 0xc4	; MEMORY MAPPED
                                 .equ	UBRR0H	= 0xc5	; MEMORY MAPPED
                                 .equ	UCSR0C	= 0xc2	; MEMORY MAPPED
                                 .equ	UCSR0B	= 0xc1	; MEMORY MAPPED
                                 .equ	UCSR0A	= 0xc0	; MEMORY MAPPED
                                 .equ	TWAMR	= 0xbd	; MEMORY MAPPED
                                 .equ	TWCR	= 0xbc	; MEMORY MAPPED
                                 .equ	TWDR	= 0xbb	; MEMORY MAPPED
                                 .equ	TWAR	= 0xba	; MEMORY MAPPED
                                 .equ	TWSR	= 0xb9	; MEMORY MAPPED
                                 .equ	TWBR	= 0xb8	; MEMORY MAPPED
                                 .equ	ASSR	= 0xb6	; MEMORY MAPPED
                                 .equ	OCR2B	= 0xb4	; MEMORY MAPPED
                                 .equ	OCR2A	= 0xb3	; MEMORY MAPPED
                                 .equ	TCNT2	= 0xb2	; MEMORY MAPPED
                                 .equ	TCCR2B	= 0xb1	; MEMORY MAPPED
                                 .equ	TCCR2A	= 0xb0	; MEMORY MAPPED
                                 .equ	OCR1BL	= 0x8a	; MEMORY MAPPED
                                 .equ	OCR1BH	= 0x8b	; MEMORY MAPPED
                                 .equ	OCR1AL	= 0x88	; MEMORY MAPPED
                                 .equ	OCR1AH	= 0x89	; MEMORY MAPPED
                                 .equ	ICR1L	= 0x86	; MEMORY MAPPED
                                 .equ	ICR1H	= 0x87	; MEMORY MAPPED
                                 .equ	TCNT1L	= 0x84	; MEMORY MAPPED
                                 .equ	TCNT1H	= 0x85	; MEMORY MAPPED
                                 .equ	TCCR1C	= 0x82	; MEMORY MAPPED
                                 .equ	TCCR1B	= 0x81	; MEMORY MAPPED
                                 .equ	TCCR1A	= 0x80	; MEMORY MAPPED
                                 .equ	DIDR1	= 0x7f	; MEMORY MAPPED
                                 .equ	DIDR0	= 0x7e	; MEMORY MAPPED
                                 .equ	ADMUX	= 0x7c	; MEMORY MAPPED
                                 .equ	ADCSRB	= 0x7b	; MEMORY MAPPED
                                 .equ	ADCSRA	= 0x7a	; MEMORY MAPPED
                                 .equ	ADCH	= 0x79	; MEMORY MAPPED
                                 .equ	ADCL	= 0x78	; MEMORY MAPPED
                                 .equ	TIMSK2	= 0x70	; MEMORY MAPPED
                                 .equ	TIMSK1	= 0x6f	; MEMORY MAPPED
                                 .equ	TIMSK0	= 0x6e	; MEMORY MAPPED
                                 .equ	PCMSK1	= 0x6c	; MEMORY MAPPED
                                 .equ	PCMSK2	= 0x6d	; MEMORY MAPPED
                                 .equ	PCMSK0	= 0x6b	; MEMORY MAPPED
                                 .equ	EICRA	= 0x69	; MEMORY MAPPED
                                 .equ	PCICR	= 0x68	; MEMORY MAPPED
                                 .equ	OSCCAL	= 0x66	; MEMORY MAPPED
                                 .equ	PRR	= 0x64	; MEMORY MAPPED
                                 .equ	CLKPR	= 0x61	; MEMORY MAPPED
                                 .equ	WDTCSR	= 0x60	; MEMORY MAPPED
                                 .equ	SREG	= 0x3f
                                 .equ	SPL	= 0x3d
                                 .equ	SPH	= 0x3e
                                 .equ	SPMCSR	= 0x37
                                 .equ	MCUCR	= 0x35
                                 .equ	MCUSR	= 0x34
                                 .equ	SMCR	= 0x33
                                 .equ	ACSR	= 0x30
                                 .equ	SPDR	= 0x2e
                                 .equ	SPSR	= 0x2d
                                 .equ	SPCR	= 0x2c
                                 .equ	GPIOR2	= 0x2b
                                 .equ	GPIOR1	= 0x2a
                                 .equ	OCR0B	= 0x28
                                 .equ	OCR0A	= 0x27
                                 .equ	TCNT0	= 0x26
                                 .equ	TCCR0B	= 0x25
                                 .equ	TCCR0A	= 0x24
                                 .equ	GTCCR	= 0x23
                                 .equ	EEARH	= 0x22
                                 .equ	EEARL	= 0x21
                                 .equ	EEDR	= 0x20
                                 .equ	EECR	= 0x1f
                                 .equ	GPIOR0	= 0x1e
                                 .equ	EIMSK	= 0x1d
                                 .equ	EIFR	= 0x1c
                                 .equ	PCIFR	= 0x1b
                                 .equ	TIFR2	= 0x17
                                 .equ	TIFR1	= 0x16
                                 .equ	TIFR0	= 0x15
                                 .equ	PORTD	= 0x0b
                                 .equ	DDRD	= 0x0a
                                 .equ	PIND	= 0x09
                                 .equ	PORTC	= 0x08
                                 .equ	DDRC	= 0x07
                                 .equ	PINC	= 0x06
                                 .equ	PORTB	= 0x05
                                 .equ	DDRB	= 0x04
                                 .equ	PINB	= 0x03
                                 
                                 
                                 ; ***** BIT DEFINITIONS **************************************************
                                 
                                 ; ***** USART0 ***********************
                                 ; UDR0 - USART I/O Data Register
                                 .equ	UDR0_0	= 0	; USART I/O Data Register bit 0
                                 .equ	UDR0_1	= 1	; USART I/O Data Register bit 1
                                 .equ	UDR0_2	= 2	; USART I/O Data Register bit 2
                                 .equ	UDR0_3	= 3	; USART I/O Data Register bit 3
                                 .equ	UDR0_4	= 4	; USART I/O Data Register bit 4
                                 .equ	UDR0_5	= 5	; USART I/O Data Register bit 5
                                 .equ	UDR0_6	= 6	; USART I/O Data Register bit 6
                                 .equ	UDR0_7	= 7	; USART I/O Data Register bit 7
                                 
                                 ; UCSR0A - USART Control and Status Register A
                                 .equ	MPCM0	= 0	; Multi-processor Communication Mode
                                 .equ	U2X0	= 1	; Double the USART transmission speed
                                 .equ	UPE0	= 2	; Parity Error
                                 .equ	DOR0	= 3	; Data overRun
                                 .equ	FE0	= 4	; Framing Error
                                 .equ	UDRE0	= 5	; USART Data Register Empty
                                 .equ	TXC0	= 6	; USART Transmitt Complete
                                 .equ	RXC0	= 7	; USART Receive Complete
                                 
                                 ; UCSR0B - USART Control and Status Register B
                                 .equ	TXB80	= 0	; Transmit Data Bit 8
                                 .equ	RXB80	= 1	; Receive Data Bit 8
                                 .equ	UCSZ02	= 2	; Character Size
                                 .equ	TXEN0	= 3	; Transmitter Enable
                                 .equ	RXEN0	= 4	; Receiver Enable
                                 .equ	UDRIE0	= 5	; USART Data register Empty Interrupt Enable
                                 .equ	TXCIE0	= 6	; TX Complete Interrupt Enable
                                 .equ	RXCIE0	= 7	; RX Complete Interrupt Enable
                                 
                                 ; UCSR0C - USART Control and Status Register C
                                 .equ	UCPOL0	= 0	; Clock Polarity
                                 .equ	UCSZ00	= 1	; Character Size
                                 .equ	UCPHA0	= UCSZ00	; For compatibility
                                 .equ	UCSZ01	= 2	; Character Size
                                 .equ	UDORD0	= UCSZ01	; For compatibility
                                 .equ	USBS0	= 3	; Stop Bit Select
                                 .equ	UPM00	= 4	; Parity Mode Bit 0
                                 .equ	UPM01	= 5	; Parity Mode Bit 1
                                 .equ	UMSEL00	= 6	; USART Mode Select
                                 .equ	UMSEL0	= UMSEL00	; For compatibility
                                 .equ	UMSEL01	= 7	; USART Mode Select
                                 .equ	UMSEL1	= UMSEL01	; For compatibility
                                 
                                 ; UBRR0H - USART Baud Rate Register High Byte
                                 .equ	UBRR8	= 0	; USART Baud Rate Register bit 8
                                 .equ	UBRR9	= 1	; USART Baud Rate Register bit 9
                                 .equ	UBRR10	= 2	; USART Baud Rate Register bit 10
                                 .equ	UBRR11	= 3	; USART Baud Rate Register bit 11
                                 
                                 ; UBRR0L - USART Baud Rate Register Low Byte
                                 .equ	_UBRR0	= 0	; USART Baud Rate Register bit 0
                                 .equ	_UBRR1	= 1	; USART Baud Rate Register bit 1
                                 .equ	UBRR2	= 2	; USART Baud Rate Register bit 2
                                 .equ	UBRR3	= 3	; USART Baud Rate Register bit 3
                                 .equ	UBRR4	= 4	; USART Baud Rate Register bit 4
                                 .equ	UBRR5	= 5	; USART Baud Rate Register bit 5
                                 .equ	UBRR6	= 6	; USART Baud Rate Register bit 6
                                 .equ	UBRR7	= 7	; USART Baud Rate Register bit 7
                                 
                                 
                                 ; ***** TWI **************************
                                 ; TWAMR - TWI (Slave) Address Mask Register
                                 .equ	TWAM0	= 1	; 
                                 .equ	TWAMR0	= TWAM0	; For compatibility
                                 .equ	TWAM1	= 2	; 
                                 .equ	TWAMR1	= TWAM1	; For compatibility
                                 .equ	TWAM2	= 3	; 
                                 .equ	TWAMR2	= TWAM2	; For compatibility
                                 .equ	TWAM3	= 4	; 
                                 .equ	TWAMR3	= TWAM3	; For compatibility
                                 .equ	TWAM4	= 5	; 
                                 .equ	TWAMR4	= TWAM4	; For compatibility
                                 .equ	TWAM5	= 6	; 
                                 .equ	TWAMR5	= TWAM5	; For compatibility
                                 .equ	TWAM6	= 7	; 
                                 .equ	TWAMR6	= TWAM6	; For compatibility
                                 
                                 ; TWBR - TWI Bit Rate register
                                 .equ	TWBR0	= 0	; 
                                 .equ	TWBR1	= 1	; 
                                 .equ	TWBR2	= 2	; 
                                 .equ	TWBR3	= 3	; 
                                 .equ	TWBR4	= 4	; 
                                 .equ	TWBR5	= 5	; 
                                 .equ	TWBR6	= 6	; 
                                 .equ	TWBR7	= 7	; 
                                 
                                 ; TWCR - TWI Control Register
                                 .equ	TWIE	= 0	; TWI Interrupt Enable
                                 .equ	TWEN	= 2	; TWI Enable Bit
                                 .equ	TWWC	= 3	; TWI Write Collition Flag
                                 .equ	TWSTO	= 4	; TWI Stop Condition Bit
                                 .equ	TWSTA	= 5	; TWI Start Condition Bit
                                 .equ	TWEA	= 6	; TWI Enable Acknowledge Bit
                                 .equ	TWINT	= 7	; TWI Interrupt Flag
                                 
                                 ; TWSR - TWI Status Register
                                 .equ	TWPS0	= 0	; TWI Prescaler
                                 .equ	TWPS1	= 1	; TWI Prescaler
                                 .equ	TWS3	= 3	; TWI Status
                                 .equ	TWS4	= 4	; TWI Status
                                 .equ	TWS5	= 5	; TWI Status
                                 .equ	TWS6	= 6	; TWI Status
                                 .equ	TWS7	= 7	; TWI Status
                                 
                                 ; TWDR - TWI Data register
                                 .equ	TWD0	= 0	; TWI Data Register Bit 0
                                 .equ	TWD1	= 1	; TWI Data Register Bit 1
                                 .equ	TWD2	= 2	; TWI Data Register Bit 2
                                 .equ	TWD3	= 3	; TWI Data Register Bit 3
                                 .equ	TWD4	= 4	; TWI Data Register Bit 4
                                 .equ	TWD5	= 5	; TWI Data Register Bit 5
                                 .equ	TWD6	= 6	; TWI Data Register Bit 6
                                 .equ	TWD7	= 7	; TWI Data Register Bit 7
                                 
                                 ; TWAR - TWI (Slave) Address register
                                 .equ	TWGCE	= 0	; TWI General Call Recognition Enable Bit
                                 .equ	TWA0	= 1	; TWI (Slave) Address register Bit 0
                                 .equ	TWA1	= 2	; TWI (Slave) Address register Bit 1
                                 .equ	TWA2	= 3	; TWI (Slave) Address register Bit 2
                                 .equ	TWA3	= 4	; TWI (Slave) Address register Bit 3
                                 .equ	TWA4	= 5	; TWI (Slave) Address register Bit 4
                                 .equ	TWA5	= 6	; TWI (Slave) Address register Bit 5
                                 .equ	TWA6	= 7	; TWI (Slave) Address register Bit 6
                                 
                                 
                                 ; ***** TIMER_COUNTER_1 **************
                                 ; TIMSK1 - Timer/Counter Interrupt Mask Register
                                 .equ	TOIE1	= 0	; Timer/Counter1 Overflow Interrupt Enable
                                 .equ	OCIE1A	= 1	; Timer/Counter1 Output CompareA Match Interrupt Enable
                                 .equ	OCIE1B	= 2	; Timer/Counter1 Output CompareB Match Interrupt Enable
                                 .equ	ICIE1	= 5	; Timer/Counter1 Input Capture Interrupt Enable
                                 
                                 ; TIFR1 - Timer/Counter Interrupt Flag register
                                 .equ	TOV1	= 0	; Timer/Counter1 Overflow Flag
                                 .equ	OCF1A	= 1	; Output Compare Flag 1A
                                 .equ	OCF1B	= 2	; Output Compare Flag 1B
                                 .equ	ICF1	= 5	; Input Capture Flag 1
                                 
                                 ; TCCR1A - Timer/Counter1 Control Register A
                                 .equ	WGM10	= 0	; Waveform Generation Mode
                                 .equ	WGM11	= 1	; Waveform Generation Mode
                                 .equ	COM1B0	= 4	; Compare Output Mode 1B, bit 0
                                 .equ	COM1B1	= 5	; Compare Output Mode 1B, bit 1
                                 .equ	COM1A0	= 6	; Comparet Ouput Mode 1A, bit 0
                                 .equ	COM1A1	= 7	; Compare Output Mode 1A, bit 1
                                 
                                 ; TCCR1B - Timer/Counter1 Control Register B
                                 .equ	CS10	= 0	; Prescaler source of Timer/Counter 1
                                 .equ	CS11	= 1	; Prescaler source of Timer/Counter 1
                                 .equ	CS12	= 2	; Prescaler source of Timer/Counter 1
                                 .equ	WGM12	= 3	; Waveform Generation Mode
                                 .equ	WGM13	= 4	; Waveform Generation Mode
                                 .equ	ICES1	= 6	; Input Capture 1 Edge Select
                                 .equ	ICNC1	= 7	; Input Capture 1 Noise Canceler
                                 
                                 ; TCCR1C - Timer/Counter1 Control Register C
                                 .equ	FOC1B	= 6	; 
                                 .equ	FOC1A	= 7	; 
                                 
                                 ; GTCCR - General Timer/Counter Control Register
                                 .equ	PSRSYNC	= 0	; Prescaler Reset Timer/Counter1 and Timer/Counter0
                                 .equ	TSM	= 7	; Timer/Counter Synchronization Mode
                                 
                                 
                                 ; ***** TIMER_COUNTER_2 **************
                                 ; TIMSK2 - Timer/Counter Interrupt Mask register
                                 .equ	TOIE2	= 0	; Timer/Counter2 Overflow Interrupt Enable
                                 .equ	TOIE2A	= TOIE2	; For compatibility
                                 .equ	OCIE2A	= 1	; Timer/Counter2 Output Compare Match A Interrupt Enable
                                 .equ	OCIE2B	= 2	; Timer/Counter2 Output Compare Match B Interrupt Enable
                                 
                                 ; TIFR2 - Timer/Counter Interrupt Flag Register
                                 .equ	TOV2	= 0	; Timer/Counter2 Overflow Flag
                                 .equ	OCF2A	= 1	; Output Compare Flag 2A
                                 .equ	OCF2B	= 2	; Output Compare Flag 2B
                                 
                                 ; TCCR2A - Timer/Counter2 Control Register A
                                 .equ	WGM20	= 0	; Waveform Genration Mode
                                 .equ	WGM21	= 1	; Waveform Genration Mode
                                 .equ	COM2B0	= 4	; Compare Output Mode bit 0
                                 .equ	COM2B1	= 5	; Compare Output Mode bit 1
                                 .equ	COM2A0	= 6	; Compare Output Mode bit 1
                                 .equ	COM2A1	= 7	; Compare Output Mode bit 1
                                 
                                 ; TCCR2B - Timer/Counter2 Control Register B
                                 .equ	CS20	= 0	; Clock Select bit 0
                                 .equ	CS21	= 1	; Clock Select bit 1
                                 .equ	CS22	= 2	; Clock Select bit 2
                                 .equ	WGM22	= 3	; Waveform Generation Mode
                                 .equ	FOC2B	= 6	; Force Output Compare B
                                 .equ	FOC2A	= 7	; Force Output Compare A
                                 
                                 ; TCNT2 - Timer/Counter2
                                 .equ	TCNT2_0	= 0	; Timer/Counter 2 bit 0
                                 .equ	TCNT2_1	= 1	; Timer/Counter 2 bit 1
                                 .equ	TCNT2_2	= 2	; Timer/Counter 2 bit 2
                                 .equ	TCNT2_3	= 3	; Timer/Counter 2 bit 3
                                 .equ	TCNT2_4	= 4	; Timer/Counter 2 bit 4
                                 .equ	TCNT2_5	= 5	; Timer/Counter 2 bit 5
                                 .equ	TCNT2_6	= 6	; Timer/Counter 2 bit 6
                                 .equ	TCNT2_7	= 7	; Timer/Counter 2 bit 7
                                 
                                 ; OCR2A - Timer/Counter2 Output Compare Register A
                                 .equ	OCR2A_0	= 0	; Timer/Counter2 Output Compare Register Bit 0
                                 .equ	OCR2A_1	= 1	; Timer/Counter2 Output Compare Register Bit 1
                                 .equ	OCR2A_2	= 2	; Timer/Counter2 Output Compare Register Bit 2
                                 .equ	OCR2A_3	= 3	; Timer/Counter2 Output Compare Register Bit 3
                                 .equ	OCR2A_4	= 4	; Timer/Counter2 Output Compare Register Bit 4
                                 .equ	OCR2A_5	= 5	; Timer/Counter2 Output Compare Register Bit 5
                                 .equ	OCR2A_6	= 6	; Timer/Counter2 Output Compare Register Bit 6
                                 .equ	OCR2A_7	= 7	; Timer/Counter2 Output Compare Register Bit 7
                                 
                                 ; OCR2B - Timer/Counter2 Output Compare Register B
                                 .equ	OCR2B_0	= 0	; Timer/Counter2 Output Compare Register Bit 0
                                 .equ	OCR2B_1	= 1	; Timer/Counter2 Output Compare Register Bit 1
                                 .equ	OCR2B_2	= 2	; Timer/Counter2 Output Compare Register Bit 2
                                 .equ	OCR2B_3	= 3	; Timer/Counter2 Output Compare Register Bit 3
                                 .equ	OCR2B_4	= 4	; Timer/Counter2 Output Compare Register Bit 4
                                 .equ	OCR2B_5	= 5	; Timer/Counter2 Output Compare Register Bit 5
                                 .equ	OCR2B_6	= 6	; Timer/Counter2 Output Compare Register Bit 6
                                 .equ	OCR2B_7	= 7	; Timer/Counter2 Output Compare Register Bit 7
                                 
                                 ; ASSR - Asynchronous Status Register
                                 .equ	TCR2BUB	= 0	; Timer/Counter Control Register2 Update Busy
                                 .equ	TCR2AUB	= 1	; Timer/Counter Control Register2 Update Busy
                                 .equ	OCR2BUB	= 2	; Output Compare Register 2 Update Busy
                                 .equ	OCR2AUB	= 3	; Output Compare Register2 Update Busy
                                 .equ	TCN2UB	= 4	; Timer/Counter2 Update Busy
                                 .equ	AS2	= 5	; Asynchronous Timer/Counter2
                                 .equ	EXCLK	= 6	; Enable External Clock Input
                                 
                                 ; GTCCR - General Timer Counter Control register
                                 .equ	PSRASY	= 1	; Prescaler Reset Timer/Counter2
                                 .equ	PSR2	= PSRASY	; For compatibility
                                 ;.equ	TSM	= 7	; Timer/Counter Synchronization Mode
                                 
                                 
                                 ; ***** AD_CONVERTER *****************
                                 ; ADMUX - The ADC multiplexer Selection Register
                                 .equ	MUX0	= 0	; Analog Channel and Gain Selection Bits
                                 .equ	MUX1	= 1	; Analog Channel and Gain Selection Bits
                                 .equ	MUX2	= 2	; Analog Channel and Gain Selection Bits
                                 .equ	MUX3	= 3	; Analog Channel and Gain Selection Bits
                                 .equ	ADLAR	= 5	; Left Adjust Result
                                 .equ	REFS0	= 6	; Reference Selection Bit 0
                                 .equ	REFS1	= 7	; Reference Selection Bit 1
                                 
                                 ; ADCSRA - The ADC Control and Status register A
                                 .equ	ADPS0	= 0	; ADC  Prescaler Select Bits
                                 .equ	ADPS1	= 1	; ADC  Prescaler Select Bits
                                 .equ	ADPS2	= 2	; ADC  Prescaler Select Bits
                                 .equ	ADIE	= 3	; ADC Interrupt Enable
                                 .equ	ADIF	= 4	; ADC Interrupt Flag
                                 .equ	ADATE	= 5	; ADC  Auto Trigger Enable
                                 .equ	ADSC	= 6	; ADC Start Conversion
                                 .equ	ADEN	= 7	; ADC Enable
                                 
                                 ; ADCSRB - The ADC Control and Status register B
                                 .equ	ADTS0	= 0	; ADC Auto Trigger Source bit 0
                                 .equ	ADTS1	= 1	; ADC Auto Trigger Source bit 1
                                 .equ	ADTS2	= 2	; ADC Auto Trigger Source bit 2
                                 .equ	ACME	= 6	; 
                                 
                                 ; ADCH - ADC Data Register High Byte
                                 .equ	ADCH0	= 0	; ADC Data Register High Byte Bit 0
                                 .equ	ADCH1	= 1	; ADC Data Register High Byte Bit 1
                                 .equ	ADCH2	= 2	; ADC Data Register High Byte Bit 2
                                 .equ	ADCH3	= 3	; ADC Data Register High Byte Bit 3
                                 .equ	ADCH4	= 4	; ADC Data Register High Byte Bit 4
                                 .equ	ADCH5	= 5	; ADC Data Register High Byte Bit 5
                                 .equ	ADCH6	= 6	; ADC Data Register High Byte Bit 6
                                 .equ	ADCH7	= 7	; ADC Data Register High Byte Bit 7
                                 
                                 ; ADCL - ADC Data Register Low Byte
                                 .equ	ADCL0	= 0	; ADC Data Register Low Byte Bit 0
                                 .equ	ADCL1	= 1	; ADC Data Register Low Byte Bit 1
                                 .equ	ADCL2	= 2	; ADC Data Register Low Byte Bit 2
                                 .equ	ADCL3	= 3	; ADC Data Register Low Byte Bit 3
                                 .equ	ADCL4	= 4	; ADC Data Register Low Byte Bit 4
                                 .equ	ADCL5	= 5	; ADC Data Register Low Byte Bit 5
                                 .equ	ADCL6	= 6	; ADC Data Register Low Byte Bit 6
                                 .equ	ADCL7	= 7	; ADC Data Register Low Byte Bit 7
                                 
                                 ; DIDR0 - Digital Input Disable Register
                                 .equ	ADC0D	= 0	; 
                                 .equ	ADC1D	= 1	; 
                                 .equ	ADC2D	= 2	; 
                                 .equ	ADC3D	= 3	; 
                                 .equ	ADC4D	= 4	; 
                                 .equ	ADC5D	= 5	; 
                                 
                                 
                                 ; ***** ANALOG_COMPARATOR ************
                                 ; ACSR - Analog Comparator Control And Status Register
                                 .equ	ACIS0	= 0	; Analog Comparator Interrupt Mode Select bit 0
                                 .equ	ACIS1	= 1	; Analog Comparator Interrupt Mode Select bit 1
                                 .equ	ACIC	= 2	; Analog Comparator Input Capture Enable
                                 .equ	ACIE	= 3	; Analog Comparator Interrupt Enable
                                 .equ	ACI	= 4	; Analog Comparator Interrupt Flag
                                 .equ	ACO	= 5	; Analog Compare Output
                                 .equ	ACBG	= 6	; Analog Comparator Bandgap Select
                                 .equ	ACD	= 7	; Analog Comparator Disable
                                 
                                 ; DIDR1 - Digital Input Disable Register 1
                                 .equ	AIN0D	= 0	; AIN0 Digital Input Disable
                                 .equ	AIN1D	= 1	; AIN1 Digital Input Disable
                                 
                                 
                                 ; ***** PORTB ************************
                                 ; PORTB - Port B Data Register
                                 .equ	PORTB0	= 0	; Port B Data Register bit 0
                                 .equ	PB0	= 0	; For compatibility
                                 .equ	PORTB1	= 1	; Port B Data Register bit 1
                                 .equ	PB1	= 1	; For compatibility
                                 .equ	PORTB2	= 2	; Port B Data Register bit 2
                                 .equ	PB2	= 2	; For compatibility
                                 .equ	PORTB3	= 3	; Port B Data Register bit 3
                                 .equ	PB3	= 3	; For compatibility
                                 .equ	PORTB4	= 4	; Port B Data Register bit 4
                                 .equ	PB4	= 4	; For compatibility
                                 .equ	PORTB5	= 5	; Port B Data Register bit 5
                                 .equ	PB5	= 5	; For compatibility
                                 .equ	PORTB6	= 6	; Port B Data Register bit 6
                                 .equ	PB6	= 6	; For compatibility
                                 .equ	PORTB7	= 7	; Port B Data Register bit 7
                                 .equ	PB7	= 7	; For compatibility
                                 
                                 ; DDRB - Port B Data Direction Register
                                 .equ	DDB0	= 0	; Port B Data Direction Register bit 0
                                 .equ	DDB1	= 1	; Port B Data Direction Register bit 1
                                 .equ	DDB2	= 2	; Port B Data Direction Register bit 2
                                 .equ	DDB3	= 3	; Port B Data Direction Register bit 3
                                 .equ	DDB4	= 4	; Port B Data Direction Register bit 4
                                 .equ	DDB5	= 5	; Port B Data Direction Register bit 5
                                 .equ	DDB6	= 6	; Port B Data Direction Register bit 6
                                 .equ	DDB7	= 7	; Port B Data Direction Register bit 7
                                 
                                 ; PINB - Port B Input Pins
                                 .equ	PINB0	= 0	; Port B Input Pins bit 0
                                 .equ	PINB1	= 1	; Port B Input Pins bit 1
                                 .equ	PINB2	= 2	; Port B Input Pins bit 2
                                 .equ	PINB3	= 3	; Port B Input Pins bit 3
                                 .equ	PINB4	= 4	; Port B Input Pins bit 4
                                 .equ	PINB5	= 5	; Port B Input Pins bit 5
                                 .equ	PINB6	= 6	; Port B Input Pins bit 6
                                 .equ	PINB7	= 7	; Port B Input Pins bit 7
                                 
                                 
                                 ; ***** PORTC ************************
                                 ; PORTC - Port C Data Register
                                 .equ	PORTC0	= 0	; Port C Data Register bit 0
                                 .equ	PC0	= 0	; For compatibility
                                 .equ	PORTC1	= 1	; Port C Data Register bit 1
                                 .equ	PC1	= 1	; For compatibility
                                 .equ	PORTC2	= 2	; Port C Data Register bit 2
                                 .equ	PC2	= 2	; For compatibility
                                 .equ	PORTC3	= 3	; Port C Data Register bit 3
                                 .equ	PC3	= 3	; For compatibility
                                 .equ	PORTC4	= 4	; Port C Data Register bit 4
                                 .equ	PC4	= 4	; For compatibility
                                 .equ	PORTC5	= 5	; Port C Data Register bit 5
                                 .equ	PC5	= 5	; For compatibility
                                 .equ	PORTC6	= 6	; Port C Data Register bit 6
                                 .equ	PC6	= 6	; For compatibility
                                 
                                 ; DDRC - Port C Data Direction Register
                                 .equ	DDC0	= 0	; Port C Data Direction Register bit 0
                                 .equ	DDC1	= 1	; Port C Data Direction Register bit 1
                                 .equ	DDC2	= 2	; Port C Data Direction Register bit 2
                                 .equ	DDC3	= 3	; Port C Data Direction Register bit 3
                                 .equ	DDC4	= 4	; Port C Data Direction Register bit 4
                                 .equ	DDC5	= 5	; Port C Data Direction Register bit 5
                                 .equ	DDC6	= 6	; Port C Data Direction Register bit 6
                                 
                                 ; PINC - Port C Input Pins
                                 .equ	PINC0	= 0	; Port C Input Pins bit 0
                                 .equ	PINC1	= 1	; Port C Input Pins bit 1
                                 .equ	PINC2	= 2	; Port C Input Pins bit 2
                                 .equ	PINC3	= 3	; Port C Input Pins bit 3
                                 .equ	PINC4	= 4	; Port C Input Pins bit 4
                                 .equ	PINC5	= 5	; Port C Input Pins bit 5
                                 .equ	PINC6	= 6	; Port C Input Pins bit 6
                                 
                                 
                                 ; ***** PORTD ************************
                                 ; PORTD - Port D Data Register
                                 .equ	PORTD0	= 0	; Port D Data Register bit 0
                                 .equ	PD0	= 0	; For compatibility
                                 .equ	PORTD1	= 1	; Port D Data Register bit 1
                                 .equ	PD1	= 1	; For compatibility
                                 .equ	PORTD2	= 2	; Port D Data Register bit 2
                                 .equ	PD2	= 2	; For compatibility
                                 .equ	PORTD3	= 3	; Port D Data Register bit 3
                                 .equ	PD3	= 3	; For compatibility
                                 .equ	PORTD4	= 4	; Port D Data Register bit 4
                                 .equ	PD4	= 4	; For compatibility
                                 .equ	PORTD5	= 5	; Port D Data Register bit 5
                                 .equ	PD5	= 5	; For compatibility
                                 .equ	PORTD6	= 6	; Port D Data Register bit 6
                                 .equ	PD6	= 6	; For compatibility
                                 .equ	PORTD7	= 7	; Port D Data Register bit 7
                                 .equ	PD7	= 7	; For compatibility
                                 
                                 ; DDRD - Port D Data Direction Register
                                 .equ	DDD0	= 0	; Port D Data Direction Register bit 0
                                 .equ	DDD1	= 1	; Port D Data Direction Register bit 1
                                 .equ	DDD2	= 2	; Port D Data Direction Register bit 2
                                 .equ	DDD3	= 3	; Port D Data Direction Register bit 3
                                 .equ	DDD4	= 4	; Port D Data Direction Register bit 4
                                 .equ	DDD5	= 5	; Port D Data Direction Register bit 5
                                 .equ	DDD6	= 6	; Port D Data Direction Register bit 6
                                 .equ	DDD7	= 7	; Port D Data Direction Register bit 7
                                 
                                 ; PIND - Port D Input Pins
                                 .equ	PIND0	= 0	; Port D Input Pins bit 0
                                 .equ	PIND1	= 1	; Port D Input Pins bit 1
                                 .equ	PIND2	= 2	; Port D Input Pins bit 2
                                 .equ	PIND3	= 3	; Port D Input Pins bit 3
                                 .equ	PIND4	= 4	; Port D Input Pins bit 4
                                 .equ	PIND5	= 5	; Port D Input Pins bit 5
                                 .equ	PIND6	= 6	; Port D Input Pins bit 6
                                 .equ	PIND7	= 7	; Port D Input Pins bit 7
                                 
                                 
                                 ; ***** TIMER_COUNTER_0 **************
                                 ; TIMSK0 - Timer/Counter0 Interrupt Mask Register
                                 .equ	TOIE0	= 0	; Timer/Counter0 Overflow Interrupt Enable
                                 .equ	OCIE0A	= 1	; Timer/Counter0 Output Compare Match A Interrupt Enable
                                 .equ	OCIE0B	= 2	; Timer/Counter0 Output Compare Match B Interrupt Enable
                                 
                                 ; TIFR0 - Timer/Counter0 Interrupt Flag register
                                 .equ	TOV0	= 0	; Timer/Counter0 Overflow Flag
                                 .equ	OCF0A	= 1	; Timer/Counter0 Output Compare Flag 0A
                                 .equ	OCF0B	= 2	; Timer/Counter0 Output Compare Flag 0B
                                 
                                 ; TCCR0A - Timer/Counter  Control Register A
                                 .equ	WGM00	= 0	; Waveform Generation Mode
                                 .equ	WGM01	= 1	; Waveform Generation Mode
                                 .equ	COM0B0	= 4	; Compare Output Mode, Fast PWm
                                 .equ	COM0B1	= 5	; Compare Output Mode, Fast PWm
                                 .equ	COM0A0	= 6	; Compare Output Mode, Phase Correct PWM Mode
                                 .equ	COM0A1	= 7	; Compare Output Mode, Phase Correct PWM Mode
                                 
                                 ; TCCR0B - Timer/Counter Control Register B
                                 .equ	CS00	= 0	; Clock Select
                                 .equ	CS01	= 1	; Clock Select
                                 .equ	CS02	= 2	; Clock Select
                                 .equ	WGM02	= 3	; 
                                 .equ	FOC0B	= 6	; Force Output Compare B
                                 .equ	FOC0A	= 7	; Force Output Compare A
                                 
                                 ; TCNT0 - Timer/Counter0
                                 .equ	TCNT0_0	= 0	; 
                                 .equ	TCNT0_1	= 1	; 
                                 .equ	TCNT0_2	= 2	; 
                                 .equ	TCNT0_3	= 3	; 
                                 .equ	TCNT0_4	= 4	; 
                                 .equ	TCNT0_5	= 5	; 
                                 .equ	TCNT0_6	= 6	; 
                                 .equ	TCNT0_7	= 7	; 
                                 
                                 ; OCR0A - Timer/Counter0 Output Compare Register
                                 .equ	OCR0A_0	= 0	; 
                                 .equ	OCR0A_1	= 1	; 
                                 .equ	OCR0A_2	= 2	; 
                                 .equ	OCR0A_3	= 3	; 
                                 .equ	OCR0A_4	= 4	; 
                                 .equ	OCR0A_5	= 5	; 
                                 .equ	OCR0A_6	= 6	; 
                                 .equ	OCR0A_7	= 7	; 
                                 
                                 ; OCR0B - Timer/Counter0 Output Compare Register
                                 .equ	OCR0B_0	= 0	; 
                                 .equ	OCR0B_1	= 1	; 
                                 .equ	OCR0B_2	= 2	; 
                                 .equ	OCR0B_3	= 3	; 
                                 .equ	OCR0B_4	= 4	; 
                                 .equ	OCR0B_5	= 5	; 
                                 .equ	OCR0B_6	= 6	; 
                                 .equ	OCR0B_7	= 7	; 
                                 
                                 ; GTCCR - General Timer/Counter Control Register
                                 ;.equ	PSRSYNC	= 0	; Prescaler Reset Timer/Counter1 and Timer/Counter0
                                 .equ	PSR10	= PSRSYNC	; For compatibility
                                 ;.equ	TSM	= 7	; Timer/Counter Synchronization Mode
                                 
                                 
                                 ; ***** EXTERNAL_INTERRUPT ***********
                                 ; EICRA - External Interrupt Control Register
                                 .equ	ISC00	= 0	; External Interrupt Sense Control 0 Bit 0
                                 .equ	ISC01	= 1	; External Interrupt Sense Control 0 Bit 1
                                 .equ	ISC10	= 2	; External Interrupt Sense Control 1 Bit 0
                                 .equ	ISC11	= 3	; External Interrupt Sense Control 1 Bit 1
                                 
                                 ; EIMSK - External Interrupt Mask Register
                                 .equ	INT0	= 0	; External Interrupt Request 0 Enable
                                 .equ	INT1	= 1	; External Interrupt Request 1 Enable
                                 
                                 ; EIFR - External Interrupt Flag Register
                                 .equ	INTF0	= 0	; External Interrupt Flag 0
                                 .equ	INTF1	= 1	; External Interrupt Flag 1
                                 
                                 ; PCICR - Pin Change Interrupt Control Register
                                 .equ	PCIE0	= 0	; Pin Change Interrupt Enable 0
                                 .equ	PCIE1	= 1	; Pin Change Interrupt Enable 1
                                 .equ	PCIE2	= 2	; Pin Change Interrupt Enable 2
                                 
                                 ; PCMSK2 - Pin Change Mask Register 2
                                 .equ	PCINT16	= 0	; Pin Change Enable Mask 16
                                 .equ	PCINT17	= 1	; Pin Change Enable Mask 17
                                 .equ	PCINT18	= 2	; Pin Change Enable Mask 18
                                 .equ	PCINT19	= 3	; Pin Change Enable Mask 19
                                 .equ	PCINT20	= 4	; Pin Change Enable Mask 20
                                 .equ	PCINT21	= 5	; Pin Change Enable Mask 21
                                 .equ	PCINT22	= 6	; Pin Change Enable Mask 22
                                 .equ	PCINT23	= 7	; Pin Change Enable Mask 23
                                 
                                 ; PCMSK1 - Pin Change Mask Register 1
                                 .equ	PCINT8	= 0	; Pin Change Enable Mask 8
                                 .equ	PCINT9	= 1	; Pin Change Enable Mask 9
                                 .equ	PCINT10	= 2	; Pin Change Enable Mask 10
                                 .equ	PCINT11	= 3	; Pin Change Enable Mask 11
                                 .equ	PCINT12	= 4	; Pin Change Enable Mask 12
                                 .equ	PCINT13	= 5	; Pin Change Enable Mask 13
                                 .equ	PCINT14	= 6	; Pin Change Enable Mask 14
                                 
                                 ; PCMSK0 - Pin Change Mask Register 0
                                 .equ	PCINT0	= 0	; Pin Change Enable Mask 0
                                 .equ	PCINT1	= 1	; Pin Change Enable Mask 1
                                 .equ	PCINT2	= 2	; Pin Change Enable Mask 2
                                 .equ	PCINT3	= 3	; Pin Change Enable Mask 3
                                 .equ	PCINT4	= 4	; Pin Change Enable Mask 4
                                 .equ	PCINT5	= 5	; Pin Change Enable Mask 5
                                 .equ	PCINT6	= 6	; Pin Change Enable Mask 6
                                 .equ	PCINT7	= 7	; Pin Change Enable Mask 7
                                 
                                 ; PCIFR - Pin Change Interrupt Flag Register
                                 .equ	PCIF0	= 0	; Pin Change Interrupt Flag 0
                                 .equ	PCIF1	= 1	; Pin Change Interrupt Flag 1
                                 .equ	PCIF2	= 2	; Pin Change Interrupt Flag 2
                                 
                                 
                                 ; ***** SPI **************************
                                 ; SPDR - SPI Data Register
                                 .equ	SPDR0	= 0	; SPI Data Register bit 0
                                 .equ	SPDR1	= 1	; SPI Data Register bit 1
                                 .equ	SPDR2	= 2	; SPI Data Register bit 2
                                 .equ	SPDR3	= 3	; SPI Data Register bit 3
                                 .equ	SPDR4	= 4	; SPI Data Register bit 4
                                 .equ	SPDR5	= 5	; SPI Data Register bit 5
                                 .equ	SPDR6	= 6	; SPI Data Register bit 6
                                 .equ	SPDR7	= 7	; SPI Data Register bit 7
                                 
                                 ; SPSR - SPI Status Register
                                 .equ	SPI2X	= 0	; Double SPI Speed Bit
                                 .equ	WCOL	= 6	; Write Collision Flag
                                 .equ	SPIF	= 7	; SPI Interrupt Flag
                                 
                                 ; SPCR - SPI Control Register
                                 .equ	SPR0	= 0	; SPI Clock Rate Select 0
                                 .equ	SPR1	= 1	; SPI Clock Rate Select 1
                                 .equ	CPHA	= 2	; Clock Phase
                                 .equ	CPOL	= 3	; Clock polarity
                                 .equ	MSTR	= 4	; Master/Slave Select
                                 .equ	DORD	= 5	; Data Order
                                 .equ	SPE	= 6	; SPI Enable
                                 .equ	SPIE	= 7	; SPI Interrupt Enable
                                 
                                 
                                 ; ***** WATCHDOG *********************
                                 ; WDTCSR - Watchdog Timer Control Register
                                 .equ	WDP0	= 0	; Watch Dog Timer Prescaler bit 0
                                 .equ	WDP1	= 1	; Watch Dog Timer Prescaler bit 1
                                 .equ	WDP2	= 2	; Watch Dog Timer Prescaler bit 2
                                 .equ	WDE	= 3	; Watch Dog Enable
                                 .equ	WDCE	= 4	; Watchdog Change Enable
                                 .equ	WDP3	= 5	; Watchdog Timer Prescaler Bit 3
                                 .equ	WDIE	= 6	; Watchdog Timeout Interrupt Enable
                                 .equ	WDIF	= 7	; Watchdog Timeout Interrupt Flag
                                 
                                 
                                 ; ***** CPU **************************
                                 ; SREG - Status Register
                                 .equ	SREG_C	= 0	; Carry Flag
                                 .equ	SREG_Z	= 1	; Zero Flag
                                 .equ	SREG_N	= 2	; Negative Flag
                                 .equ	SREG_V	= 3	; Two's Complement Overflow Flag
                                 .equ	SREG_S	= 4	; Sign Bit
                                 .equ	SREG_H	= 5	; Half Carry Flag
                                 .equ	SREG_T	= 6	; Bit Copy Storage
                                 .equ	SREG_I	= 7	; Global Interrupt Enable
                                 
                                 ; OSCCAL - Oscillator Calibration Value
                                 .equ	CAL0	= 0	; Oscillator Calibration Value Bit0
                                 .equ	CAL1	= 1	; Oscillator Calibration Value Bit1
                                 .equ	CAL2	= 2	; Oscillator Calibration Value Bit2
                                 .equ	CAL3	= 3	; Oscillator Calibration Value Bit3
                                 .equ	CAL4	= 4	; Oscillator Calibration Value Bit4
                                 .equ	CAL5	= 5	; Oscillator Calibration Value Bit5
                                 .equ	CAL6	= 6	; Oscillator Calibration Value Bit6
                                 .equ	CAL7	= 7	; Oscillator Calibration Value Bit7
                                 
                                 ; CLKPR - Clock Prescale Register
                                 .equ	CLKPS0	= 0	; Clock Prescaler Select Bit 0
                                 .equ	CLKPS1	= 1	; Clock Prescaler Select Bit 1
                                 .equ	CLKPS2	= 2	; Clock Prescaler Select Bit 2
                                 .equ	CLKPS3	= 3	; Clock Prescaler Select Bit 3
                                 .equ	CLKPCE	= 7	; Clock Prescaler Change Enable
                                 
                                 ; SPMCSR - Store Program Memory Control and Status Register
                                 .equ    SELFPRGEN = 0; Added for backwards compatibility
                                 .equ	SPMEN	= 0	; Store Program Memory
                                 .equ	PGERS	= 1	; Page Erase
                                 .equ	PGWRT	= 2	; Page Write
                                 .equ	BLBSET	= 3	; Boot Lock Bit Set
                                 .equ	RWWSRE	= 4	; Read-While-Write section read enable
                                 .equ    SIGRD   = 5 ; Signature Row Read
                                 .equ	RWWSB	= 6	; Read-While-Write Section Busy
                                 .equ	SPMIE	= 7	; SPM Interrupt Enable
                                 
                                 ; MCUCR - MCU Control Register
                                 .equ	IVCE	= 0	; 
                                 .equ	IVSEL	= 1	; 
                                 .equ	PUD	= 4	; 
                                 .equ	BODSE	= 5	; BOD Sleep Enable
                                 .equ	BODS	= 6	; BOD Sleep
                                 
                                 ; MCUSR - MCU Status Register
                                 .equ	PORF	= 0	; Power-on reset flag
                                 .equ	EXTRF	= 1	; External Reset Flag
                                 .equ	EXTREF	= EXTRF	; For compatibility
                                 .equ	BORF	= 2	; Brown-out Reset Flag
                                 .equ	WDRF	= 3	; Watchdog Reset Flag
                                 
                                 ; SMCR - Sleep Mode Control Register
                                 .equ	SE	= 0	; Sleep Enable
                                 .equ	SM0	= 1	; Sleep Mode Select Bit 0
                                 .equ	SM1	= 2	; Sleep Mode Select Bit 1
                                 .equ	SM2	= 3	; Sleep Mode Select Bit 2
                                 
                                 ; GPIOR2 - General Purpose I/O Register 2
                                 .equ	GPIOR20	= 0	; 
                                 .equ	GPIOR21	= 1	; 
                                 .equ	GPIOR22	= 2	; 
                                 .equ	GPIOR23	= 3	; 
                                 .equ	GPIOR24	= 4	; 
                                 .equ	GPIOR25	= 5	; 
                                 .equ	GPIOR26	= 6	; 
                                 .equ	GPIOR27	= 7	; 
                                 
                                 ; GPIOR1 - General Purpose I/O Register 1
                                 .equ	GPIOR10	= 0	; 
                                 .equ	GPIOR11	= 1	; 
                                 .equ	GPIOR12	= 2	; 
                                 .equ	GPIOR13	= 3	; 
                                 .equ	GPIOR14	= 4	; 
                                 .equ	GPIOR15	= 5	; 
                                 .equ	GPIOR16	= 6	; 
                                 .equ	GPIOR17	= 7	; 
                                 
                                 ; GPIOR0 - General Purpose I/O Register 0
                                 .equ	GPIOR00	= 0	; 
                                 .equ	GPIOR01	= 1	; 
                                 .equ	GPIOR02	= 2	; 
                                 .equ	GPIOR03	= 3	; 
                                 .equ	GPIOR04	= 4	; 
                                 .equ	GPIOR05	= 5	; 
                                 .equ	GPIOR06	= 6	; 
                                 .equ	GPIOR07	= 7	; 
                                 
                                 ; PRR - Power Reduction Register
                                 .equ	PRADC	= 0	; Power Reduction ADC
                                 .equ	PRUSART0	= 1	; Power Reduction USART
                                 .equ	PRSPI	= 2	; Power Reduction Serial Peripheral Interface
                                 .equ	PRTIM1	= 3	; Power Reduction Timer/Counter1
                                 .equ	PRTIM0	= 5	; Power Reduction Timer/Counter0
                                 .equ	PRTIM2	= 6	; Power Reduction Timer/Counter2
                                 .equ	PRTWI	= 7	; Power Reduction TWI
                                 
                                 
                                 ; ***** EEPROM ***********************
                                 ; EEARL - EEPROM Address Register Low Byte
                                 .equ	EEAR0	= 0	; EEPROM Read/Write Access Bit 0
                                 .equ	EEAR1	= 1	; EEPROM Read/Write Access Bit 1
                                 .equ	EEAR2	= 2	; EEPROM Read/Write Access Bit 2
                                 .equ	EEAR3	= 3	; EEPROM Read/Write Access Bit 3
                                 .equ	EEAR4	= 4	; EEPROM Read/Write Access Bit 4
                                 .equ	EEAR5	= 5	; EEPROM Read/Write Access Bit 5
                                 .equ	EEAR6	= 6	; EEPROM Read/Write Access Bit 6
                                 .equ	EEAR7	= 7	; EEPROM Read/Write Access Bit 7
                                 
                                 ; EEARH - EEPROM Address Register High Byte
                                 .equ	EEAR8	= 0	; EEPROM Read/Write Access Bit 8
                                 .equ	EEAR9	= 1	; EEPROM Read/Write Access Bit 9
                                 
                                 ; EEDR - EEPROM Data Register
                                 .equ	EEDR0	= 0	; EEPROM Data Register bit 0
                                 .equ	EEDR1	= 1	; EEPROM Data Register bit 1
                                 .equ	EEDR2	= 2	; EEPROM Data Register bit 2
                                 .equ	EEDR3	= 3	; EEPROM Data Register bit 3
                                 .equ	EEDR4	= 4	; EEPROM Data Register bit 4
                                 .equ	EEDR5	= 5	; EEPROM Data Register bit 5
                                 .equ	EEDR6	= 6	; EEPROM Data Register bit 6
                                 .equ	EEDR7	= 7	; EEPROM Data Register bit 7
                                 
                                 ; EECR - EEPROM Control Register
                                 .equ	EERE	= 0	; EEPROM Read Enable
                                 .equ	EEPE	= 1	; EEPROM Write Enable
                                 .equ	EEMPE	= 2	; EEPROM Master Write Enable
                                 .equ	EERIE	= 3	; EEPROM Ready Interrupt Enable
                                 .equ	EEPM0	= 4	; EEPROM Programming Mode Bit 0
                                 .equ	EEPM1	= 5	; EEPROM Programming Mode Bit 1
                                 
                                 
                                 
                                 ; ***** LOCKSBITS ********************************************************
                                 .equ	LB1	= 0	; Lock bit
                                 .equ	LB2	= 1	; Lock bit
                                 .equ	BLB01	= 2	; Boot Lock bit
                                 .equ	BLB02	= 3	; Boot Lock bit
                                 .equ	BLB11	= 4	; Boot lock bit
                                 .equ	BLB12	= 5	; Boot lock bit
                                 
                                 
                                 ; ***** FUSES ************************************************************
                                 ; LOW fuse bits
                                 .equ	CKSEL0	= 0	; Select Clock Source
                                 .equ	CKSEL1	= 1	; Select Clock Source
                                 .equ	CKSEL2	= 2	; Select Clock Source
                                 .equ	CKSEL3	= 3	; Select Clock Source
                                 .equ	SUT0	= 4	; Select start-up time
                                 .equ	SUT1	= 5	; Select start-up time
                                 .equ	CKOUT	= 6	; Clock output
                                 .equ	CKDIV8	= 7	; Divide clock by 8
                                 
                                 ; HIGH fuse bits
                                 .equ	BOOTRST	= 0	; Select reset vector
                                 .equ	BOOTSZ0	= 1	; Select boot size
                                 .equ	BOOTSZ1	= 2	; Select boot size
                                 .equ	EESAVE	= 3	; EEPROM memory is preserved through chip erase
                                 .equ	WDTON	= 4	; Watchdog Timer Always On
                                 .equ	SPIEN	= 5	; Enable Serial programming and Data Downloading
                                 .equ	DWEN	= 6	; debugWIRE Enable
                                 .equ	RSTDISBL	= 7	; External reset disable
                                 
                                 ; EXTENDED fuse bits
                                 .equ	BODLEVEL0	= 0	; Brown-out Detector trigger level
                                 .equ	BODLEVEL1	= 1	; Brown-out Detector trigger level
                                 .equ	BODLEVEL2	= 2	; Brown-out Detector trigger level
                                 
                                 
                                 
                                 ; ***** CPU REGISTER DEFINITIONS *****************************************
                                 .def	XH	= r27
                                 .def	XL	= r26
                                 .def	YH	= r29
                                 .def	YL	= r28
                                 .def	ZH	= r31
                                 .def	ZL	= r30
                                 
                                 
                                 
                                 ; ***** DATA MEMORY DECLARATIONS *****************************************
                                 .equ	FLASHEND	= 0x3fff	; Note: Word address
                                 .equ	IOEND	= 0x00ff
                                 .equ	SRAM_START	= 0x0100
                                 .equ	SRAM_SIZE	= 2048
                                 .equ	RAMEND	= 0x08ff
                                 .equ	XRAMEND	= 0x0000
                                 .equ	E2END	= 0x03ff
                                 .equ	EEPROMEND	= 0x03ff
                                 .equ	EEADRBITS	= 10
                                 #pragma AVRPART MEMORY PROG_FLASH 32768
                                 #pragma AVRPART MEMORY EEPROM 1024
                                 #pragma AVRPART MEMORY INT_SRAM SIZE 2048
                                 #pragma AVRPART MEMORY INT_SRAM START_ADDR 0x100
                                 
                                 
                                 
                                 ; ***** BOOTLOADER DECLARATIONS ******************************************
                                 .equ	NRWW_START_ADDR	= 0x3800
                                 .equ	NRWW_STOP_ADDR	= 0x3fff
                                 .equ	RWW_START_ADDR	= 0x0
                                 .equ	RWW_STOP_ADDR	= 0x37ff
                                 .equ	PAGESIZE	= 64
                                 .equ	FIRSTBOOTSTART	= 0x3f00
                                 .equ	SECONDBOOTSTART	= 0x3e00
                                 .equ	THIRDBOOTSTART	= 0x3c00
                                 .equ	FOURTHBOOTSTART	= 0x3800
                                 .equ	SMALLBOOTSTART	= FIRSTBOOTSTART
                                 .equ	LARGEBOOTSTART	= FOURTHBOOTSTART
                                 
                                 
                                 
                                 ; ***** INTERRUPT VECTORS ************************************************
                                 .equ	INT0addr	= 0x0002	; External Interrupt Request 0
                                 .equ	INT1addr	= 0x0004	; External Interrupt Request 1
                                 .equ	PCI0addr	= 0x0006	; Pin Change Interrupt Request 0
                                 .equ	PCI1addr	= 0x0008	; Pin Change Interrupt Request 0
                                 .equ	PCI2addr	= 0x000a	; Pin Change Interrupt Request 1
                                 .equ	WDTaddr	= 0x000c	; Watchdog Time-out Interrupt
                                 .equ	OC2Aaddr	= 0x000e	; Timer/Counter2 Compare Match A
                                 .equ	OC2Baddr	= 0x0010	; Timer/Counter2 Compare Match A
                                 .equ	OVF2addr	= 0x0012	; Timer/Counter2 Overflow
                                 .equ	ICP1addr	= 0x0014	; Timer/Counter1 Capture Event
                                 .equ	OC1Aaddr	= 0x0016	; Timer/Counter1 Compare Match A
                                 .equ	OC1Baddr	= 0x0018	; Timer/Counter1 Compare Match B
                                 .equ	OVF1addr	= 0x001a	; Timer/Counter1 Overflow
                                 .equ	OC0Aaddr	= 0x001c	; TimerCounter0 Compare Match A
                                 .equ	OC0Baddr	= 0x001e	; TimerCounter0 Compare Match B
                                 .equ	OVF0addr	= 0x0020	; Timer/Couner0 Overflow
                                 .equ	SPIaddr	= 0x0022	; SPI Serial Transfer Complete
                                 .equ	URXCaddr	= 0x0024	; USART Rx Complete
                                 .equ	UDREaddr	= 0x0026	; USART, Data Register Empty
                                 .equ	UTXCaddr	= 0x0028	; USART Tx Complete
                                 .equ	ADCCaddr	= 0x002a	; ADC Conversion Complete
                                 .equ	ERDYaddr	= 0x002c	; EEPROM Ready
                                 .equ	ACIaddr	= 0x002e	; Analog Comparator
                                 .equ	TWIaddr	= 0x0030	; Two-wire Serial Interface
                                 .equ	SPMRaddr	= 0x0032	; Store Program Memory Read
                                 
                                 .equ	INT_VECTORS_SIZE	= 52	; size in words
                                 
                                 #endif  /* _M328PDEF_INC_ */
                                 
                                 ; ***** END OF FILE ******************************************************
                                 
                                 ; S.H.I.V.A.
                                 ; Sistema Hibrido Inclinador de Vaso Automatizado
                                 ;-------------------------------------------------------------------------
                                 ;-------------------------------------------------------------------------
                                 ; MCU: ATmega328p con oscilador interno a 16 MHz
                                 ;-------------------------------------------------------------------------
                                 ;-------------------------------------------------------------------------
                                 ; INCLUSIONES
                                 ;-------------------------------------------------------------------------
                                 .include "m328pdef.inc"
                                 
                                 ;***** Created: 2011-02-09 12:03 ******* Source: ATmega328P.xml **********
                                 ;*************************************************************************
                                 ;* A P P L I C A T I O N   N O T E   F O R   T H E   A V R   F A M I L Y
                                 ;* 
                                 ;* Number            : AVR000
                                 ;* File Name         : "m328Pdef.inc"
                                 ;* Title             : Register/Bit Definitions for the ATmega328P
                                 ;* Date              : 2011-02-09
                                 ;* Version           : 2.35
                                 ;* Support E-mail    : avr@atmel.com
                                 ;* Target MCU        : ATmega328P
                                 ;* 
                                 ;* DESCRIPTION
                                 ;* When including this file in the assembly program file, all I/O register 
                                 ;* names and I/O register bit names appearing in the data book can be used.
                                 ;* In addition, the six registers forming the three data pointers X, Y and 
                                 ;* Z have been assigned names XL - ZH. Highest RAM address for Internal 
                                 ;* SRAM is also defined 
                                 ;* 
                                 ;* The Register names are represented by their hexadecimal address.
                                 ;* 
                                 ;* The Register Bit names are represented by their bit number (0-7).
                                 ;* 
                                 ;* Please observe the difference in using the bit names with instructions
                                 ;* such as "sbr"/"cbr" (set/clear bit in register) and "sbrs"/"sbrc"
                                 ;* (skip if bit in register set/cleared). The following example illustrates
                                 ;* this:
                                 ;* 
                                 ;* in    r16,PORTB             ;read PORTB latch
                                 ;* sbr   r16,(1<<PB6)+(1<<PB5) ;set PB6 and PB5 (use masks, not bit#)
                                 ;* out   PORTB,r16             ;output to PORTB
                                 ;* 
                                 ;* in    r16,TIFR              ;read the Timer Interrupt Flag Register
                                 ;* sbrc  r16,TOV0              ;test the overflow flag (use bit#)
                                 ;* rjmp  TOV0_is_set           ;jump if set
                                 ;* ...                         ;otherwise do something else
                                 ;*************************************************************************
                                 
                                 #ifndef _M328PDEF_INC_
                                 #endif  /* _M328PDEF_INC_ */
                                 
                                 ; ***** END OF FILE ******************************************************
                                 .include "hx711.inc"
                                 
                                 ; CONSTANTES y MACROS
                                 ;-------------------------------------------------------------------------
                                 .equ  SCK  = PC0					; pin donde se conecta SCK
                                 .equ  DOUT = PC1					; pin donde se conecta DOUT
                                 .equ  MULTIPLICADOR = 77			; Factor de multiplicacion de la escala del peso del programa en C ~ 77/2^14
                                 
                                 ;-------------------------------------------------------------------------
                                 ; VARIABLES EN REGISTROS
                                 ;-------------------------------------------------------------------------
                                 .def  DATO_H = r4
                                 .def  DATO_M = r3
                                 .def  DATO_L = r2
                                 
                                 .def  TARA_H	= r7
                                 .def  TARA_M	= r6
                                 .def  TARA_L = r5
                                 
                                 .include "input.inc"
                                 
                                 ; CONSTANTES y MACROS
                                 ;-------------------------------------------------------------------------
                                 .equ VALOR_CANCELACION = 4096 
                                 .equ MIN_PERTURBACION = 256
                                 
                                 .equ VASO_MINIMO  = 200
                                 .equ MARGEN_ERROR = 4
                                 .equ NRO_MUESTRAS = 6
                                 ;-------------------------------------------------------------------------
                                 ; VARIABLES EN REGISTROS
                                 ;-------------------------------------------------------------------------
                                 .def MEDIDA_L = r11
                                 .include "configuracion.inc"
                                 .include "output.inc"
                                 
                                 ; VARIABLES EN REGISTROS
                                 ; ----------------------------------------------------
                                 
                                 .def   TECHO_L = r19
                                 .def   TECHO_H = r20
                                 .def   PASO    = r21
                                 .def   MEDIDA_MITAD_L = r22
                                 .def   MEDIDA_MITAD_H = r23
                                 
                                 ; ----------------------------------------------------	
                                 ; MACROS
                                 ; ----------------------------------------------------	
                                 ; PANTALLA LCD					
                                 .equ  LCD_DPRT = PORTD
                                 .equ  LCD_DDDR = DDRD
                                 .equ  LCD_DPIN = PIND						; Para los datos del LCD se usan los pines D7:D4
                                 
                                 .equ  LCD_CPRT = PORTB  
                                 .equ  LCD_CDDR = DDRB
                                 .equ  LCD_CPIN = PINB						; Para los comandos del LCD se utilizan los pines PB1:PB0
                                 
                                 .equ  LCD_RS = 4
                                 .equ  LCD_RW = 3
                                 .equ  LCD_E  = 2							; A que pin del PORTB pertencen
                                 
                                 .equ  CLEAR_DISPLAY                 = 0x01
                                 .equ  RETURN_HOME                   = 0x02
                                 .equ  DECREMENT_CURSOR              = 0x04
                                 .equ  INCREMENT_CURSOR              = 0x06
                                 .equ  SHIFT_DISPLAY_RIGHT           = 0x05
                                 .equ  SHIFT_DISPLAY_LEFT            = 0x07
                                 .equ  DISP_OFF_CURS_OFF             = 0x08  ; Display apagado, cursor apagado
                                 .equ  DISP_OFF_CURS_ON              = 0x0A  ; Display apagado, cursor prendido
                                 .equ  DISP_ON_CURS_OFF              = 0x0C  ; Display prendido, cursor apagado
                                 .equ  DISP_ON_CURS_BLINK            = 0x0E  ; Display prendido, cursor titilando
                                 .equ  DISP_ON_CURS_NO_BLINK         = 0x0F  ; Display prendido, cursor sin titilar
                                 .equ  SHIFT_CURSOR_LEFT             = 0x10	; Shiftea la posicion del cursor a la izquierda
                                 .equ  SHIFT_CURSOR_RIGHT            = 0x14	; Shiftea la posicion del cursor a la derecha
                                 .equ  SHIFT_ENTIRE_DISPLAY_LEFT     = 0x18	; Shiftea todo el display a la izquierda
                                 .equ  SHIFT_ENTIRE_DISPLAY_RIGHT    = 0x1C	; Shiftea todo el display a la derecha
                                 .equ  CURSOR_LINE_1                 = 0x80	; Fuerza el cursor al ppio de la 1raa linea
                                 .equ  CURSOR_LINE_2                 = 0xC0	; Fuerza el cursor al ppio de la 2da linea
                                 .equ  DATA_4BIT                     = 0x28	; Dos lineas, D4-D7
                                 .equ  DATA_8BIT                     = 0x38	; Dos lineas, D0-D7
                                 .equ  END_OF_MESSAGE				= 0xF0
                                 
                                 ; SERVO
                                 .equ  POS_MAYOR_INCLINACION = 313 + 40			; valor para el Output Comapre Register para posicionar el servo en la mayor inclinacion
                                 
                                 .org 0x500
                                 .include "hx711.asm"
                                 
                                 ; LECTURA_PESO: 
                                 ; funcion para la lectura de datos de la celda de carga. Carga
                                 ; los bits enviados por el amplificador HX711 a traves del pin DOUT y los
                                 ; guarda en los registros r4:r2 y les resta el tara. Usa los registros r16 y r17
                                 ;-------------------------------------------------------------------------
                                 
                                 lectura_peso:
000500 930f                      	push  r16
000501 931f                      	push  r17
                                 
                                 lectura_peso_loop:
000502 9931                      	sbic  PINC, DOUT					
000503 cffe                      	rjmp  lectura_peso_loop			; chequeo si DOUT est en alto
000504 0000                      	nop							
000505 0000                      	nop 							; Espero dos ciclos y vuelvo a preguntar si sigue en alto ya que
000506 9931                      	sbic  PINC, DOUT				; por la hoja de datos, DOUT debe estar como minimo 0.1 useg en 0
000507 cffa                      	rjmp  lectura_peso_loop			; para indicar que tiene un dato disponible para mandar.
                                 
000508 d012                      	rcall cargar_byte				; lee 8 bits y los guarda en r16
000509 2e40                      	mov   DATO_H, r16				; primer byte es el mas significativo
00050a d010                      	rcall cargar_byte
00050b 2e30                      	mov   DATO_M, r16
00050c d00e                      	rcall cargar_byte
00050d 2e20                      	mov   DATO_L, r16
                                 
00050e 9a40                      	sbi   PORTC, SCK				; se genera el pulso numero 25 requerido para setear el DOUT
00050f 0000                      	nop								; debe estar un tiempo en alto mayor a 0.2 useg
000510 0000                      	nop
000511 0000                      	nop
000512 0000                      	nop
000513 9840                      	cbi   PORTC, SCK
                                 	
000514 d05e                      	rcall com_2						; Hace el complemento a 2 de los datos leidos
                                    	
000515 1825                      	sub   DATO_L, TARA_L			; Le saco el offset a los valores
000516 0836                      	sbc   DATO_M, TARA_M
000517 0847                      	sbc   DATO_H, TARA_H
                                 	
000518 911f                      	pop   r17
000519 910f                      	pop   r16
00051a 9508                      	ret
                                 
                                 ;-------------------------------------------------------------------------
                                 ; CARGAR_BYTE: 
                                 ; Carga 8 bits del amplificador uno por uno y los guarda en r16.
                                 ;-------------------------------------------------------------------------
                                 
                                 cargar_byte:
00051b 2700                      	clr   r16
00051c e018                      	ldi   CONT_8, 8
                                 cargar_bit:
00051d 9a40                      	sbi   PORTC, SCK				; se genera un flanco ascendente en la seal SCK para cargar un bit
00051e 0000                      	nop
00051f 0000                      	nop
000520 0f00                      	lsl   r16
000521 9931                      	sbic  PINC, DOUT				; si en DOUT hay un 1, se incrementa r16 y pone un 1 en el LSB	
000522 9503                      	inc   r16						; si en DOUT hay un 0, salte esta instruccion y deja un 0 en LSB	
000523 9840                      	cbi   PORTC, SCK				; se genera un flanco descendente en la seal SCK para cargar un bit
000524 951a                      	dec   CONT_8
000525 f7b9                      	brne  cargar_bit
000526 9508                      	ret
                                 
                                 ; ----------------------------------------------------------------------
                                 ; SET_TARA:
                                 ; Esta funcion lee 16 valores, calcula el promedio y es el offset que hay que restarle 
                                 ; luego a cada dato leido.
                                 ; me deja en TARA_H, TARA_M, TARA_L el peso leido inicialmente.
                                 ; ----------------------------------------------------------------------
                                 set_tara:
000527 930f                      	push r16
000528 931f                      	push r17
000529 932f                      	push r18
00052a 933f                      	push r19
00052b 934f                      	push r20
                                 
00052c e100                      	ldi  r16, 16					; contador, se va a hacer un promedio de 16 muestras para el offset
00052d 2455                      	clr  TARA_L					
00052e 2466                      	clr  TARA_M
00052f 2477                      	clr  TARA_H					
000530 2711                      	clr  r17						; 4 bytes para ir guardando la suma parcial del promedio
000531 2722                      	clr  r18
000532 2733                      	clr  r19		
000533 2744                      	clr  r20
                                 
                                 set_tara_loop:					
000534 dfcb                      	rcall lectura_peso			
000535 0d12                      	add  r17, DATO_L			; se usan registros auxiliares para no modificar las lecturas dentro de
000536 1d23                      	adc  r18, DATO_M			; lectura peso, ya que se resta en esa funcion la tara
000537 1d34                      	adc  r19, DATO_H
000538 f408                      	brcc set_tara_next
000539 9543                      	inc  r20 					; si hubo carry incremento el HIGH_BYTE
                                 set_tara_next:
00053a 950a                      	dec  r16
00053b f7c1                      	brne set_tara_loop
                                 
                                 set_tara_division_por_4:	
00053c e004                      	ldi  r16, 4					; Para dividir por 16 se crea un contador con 4 porque se va a shiftear 4 veces
                                 set_tara_division:
00053d 9546                      	lsr  r20
00053e 9537                      	ror  r19
00053f 9527                      	ror  r18
000540 9517                      	ror  r17
000541 950a                      	dec  r16
000542 f7d1                      	brne  set_tara_division
                                 	
000543 2e73                      	mov TARA_H, r19				; guardo en tara el promedio de los primeros 16 valores
000544 2e62                      	mov TARA_M, r18
000545 2e51                      	mov TARA_L, r17
                                 	
000546 914f                      	pop r20
000547 913f                      	pop r19
000548 912f                      	pop r18
000549 911f                      	pop r17
00054a 910f                      	pop r16	
00054b 9508                      	ret
                                 
                                 ; ----------------------------------------------------------------------
                                 ; SET_SCALE:
                                 ; Con los datos de la balanza obtuvimos el factor de escala para pasar
                                 ; los datos a gramos. Como el factor es 1/211.9170459 que se aproxim a 77/2^14
                                 ; ----------------------------------------------------------------------
                                 
                                 set_scale:
00054c 930f                      	push r16
00054d 931f                      	push r17
00054e 932f                      	push r18
00054f 933f                      	push r19
000550 934f                      	push r20
                                 
000551 2711                      	clr r17
000552 2722                      	clr r18
000553 2733                      	clr r19
000554 2744                      	clr r20
                                 	
000555 e40d                      	ldi  r16, MULTIPLICADOR
000556 2044                      	tst  DATO_H								; si el valor leido es negativo (tara>valor_leido) se le hace el complemento a 2
000557 f40a                      	brpl multiplicacion_low
000558 d01a                      	rcall com_2
                                 											; primero multiplicamos por 77 el dato y guardamos el resultado en r20:r17
                                 multiplicacion_low:
000559 9e20                      	mul  DATO_L, r16						; mutiplico el byte bajo del numero con 3 bytes
00055a 2d21                      	mov  r18, r1
00055b 2d10                      	mov  r17, r0
                                 	
                                 multiplicacion_middle:
00055c 9e30                      	mul  DATO_M, r16						; mutiplico el byte medio del numero con 3 bytes
00055d 0d20                      	add  r18, r0
00055e 1d31                      	adc  r19, r1
00055f f408                      	brcc multiplicacion_high
000560 9543                      	inc  r20
                                 
                                 multiplicacion_high:						; mutiplico el byte alto del numero con 3 bytes
000561 9e40                      	mul  DATO_H, r16
000562 0d30                      	add  r19, r0
000563 1d41                      	adc  r20, r1
                                 											; vamos a dividir por 2^14, que es tomar los primero 3 bytes y shiftear 6 veces
000564 2e22                      	mov  DATO_L, r18
000565 2e33                      	mov  DATO_M, r19
000566 2e44                      	mov  DATO_H, r20
                                 
                                 division_por_6:
000567 e006                      	ldi  r16, 6
                                 
                                 shifteo_loop:
000568 9446                      	lsr  DATO_H
000569 9437                      	ror  DATO_M
00056a 9427                      	ror  DATO_L
00056b 950a                      	dec  r16
00056c f7d9                      	brne shifteo_loop
                                 	
00056d 914f                      	pop r20
00056e 913f                      	pop r19
00056f 912f                      	pop r18
000570 911f                      	pop r17
000571 910f                      	pop r16
000572 9508                      	ret
                                 
                                 ; ----------------------------------------------------------------------
                                 ; COM_2:
                                 ; Calcula el complemento a dos del dato guardado en  r4:r2 
                                 ; ----------------------------------------------------------------------
                                 com_2:
000573 930f                      	push  r16
                                 	
000574 2700                      	clr r16	
000575 9440                      	com DATO_H
000576 9430                      	com DATO_M
000577 9421                      	neg DATO_L
000578 f010                      	brcs com_2_retornar
000579 1e30                      	adc  DATO_M, r16
00057a 1e40                      	adc  DATO_H, r16
                                 
                                 com_2_retornar:
00057b 910f                      	pop r16
00057c 9508                      	ret
                                 
                                 .include "configuracion.asm"
                                 
                                 ; CONFIGURACION_PUERTOS:
                                 ; se definen los puertos de entrada o de salda para todo el programa
                                 ;-------------------------------------------------------------------------
                                 configuracion_puertos:
00057d 930f                      	push r16
                                 									; CELDA DE CARGA	
00057e 9a38                      	sbi  DDRC, SCK					; puerto PC0 = A0 como salida (SCK)
00057f 9839                      	cbi  DDRC, DOUT
000580 9a41                      	sbi  PORTC, DOUT				; puerto PC = A1 como entrada (DOUT) 
                                 
                                 									; SERVO
000581 9a21                      	sbi  DDRB, PB1					; PB1 como output pin						
                                 	
000582 ef00                      	ldi  r16, 0xF0					; PANTALLA LCD		
000583 b90a                      	out  LCD_DDDR, r16				; Configuro los bits D7:D4 del puerto D como de salida
000584 9a24                      	sbi  LCD_CDDR, LCD_RS		
000585 9a23                      	sbi  LCD_CDDR, LCD_RW
000586 9a22                      	sbi  LCD_CDDR, LCD_E			; Se configura los puertos de dato (PORTD) y los comandos usados (del PORTB) como de salida 
000587 db0b                      	rcall delay_3ms
                                 
000588 910f                      	pop  r16
000589 9508                      	ret											
                                 
                                 ;-------------------------------------------------------------------------
                                 ; LCD_INIT:
                                 ; se define el formato en que se le envian los datos a la pantalla, y el 
                                 ; formato del cursor.
                                 ;-------------------------------------------------------------------------
                                 LCD_init:
00058a 930f                      	push  r16
                                 
00058b e208                      	ldi   r16, DATA_4BIT			; Trabajamos enviando los caracteres de a 4 bits
00058c d244                      	rcall send_command
00058d db05                      	rcall delay_3ms
                                 	
00058e e00c                      	ldi   r16, DISP_ON_CURS_OFF		; Sin cursor
00058f d241                      	rcall send_command				
000590 db02                      	rcall delay_3ms
                                 
000591 910f                      	pop   r16
000592 9508                      	ret
                                 
                                 ;-------------------------------------------------------------------------
                                 ; SERVO_INIT:
                                 ; Inicializa la posicin del servo tal que la plataforma se encuentre en
                                 ; posicin vertical. Envia un PWM de periodo 20 ms y tiempo en alto 0,5 ms
                                 ; por el pin correspondiente al TIMER1A
                                 ;-------------------------------------------------------------------------
                                 servo_init:
000593 930f                      	push r16
                                 
000594 e001                      	ldi  r16, HIGH(313 + 7)
000595 9300 0089                 	sts  OCR1AH, r16
                                 
000597 e400                      	ldi  r16, LOW(313 + 7)
000598 9300 0088                 	sts  OCR1AL, r16
                                 
00059a e803                      	ldi  r16, (1<<WGM11)|(1<<WGM10)|(1<<COM1A1)|(0<<COM1A0)			; fast-PWM mode, non-inverting mode
00059b 9300 0080                 	sts  TCCR1A, r16					
                                 
00059d e00d                      	ldi  r16, (0<<WGM13)|(1<<WGM12)|(1<<CS02)|(0<<CS01)|(1<<CS00)
00059e 9300 0081                 	sts  TCCR1B, r16												; con prescaler = 1024
                                 
0005a0 e001                      	ldi  r16, (1<<TOIE1)
0005a1 9300 006f                 	sts  TIMSK1, r16												; se activa interrupciones
                                 
0005a3 910f                      	pop  r16
0005a4 9508                      	ret
                                 .include "input.asm"
                                 
                                 ; DETECTAR_PERTURBACION:
                                 ; Para la configuracion del dispositivo se detectaran golpes dados por
                                 ; el usuario. Entonces, se determin, a partir de mediciones, que un golpe equivale a aproximadamente
                                 ; 300 gr. Por lo que se toma el byte del medio del dato y se verifica si es
                                 ; mayor a 255. Si lo es se verifica que haya un segundo golpe. Si esto
                                 ; ocurre significa que el dispositivo esta siendo configurado.
                                 ; ----------------------------------------------------------------------
                                 detectar_perturbacion:
0005a5 930f                      	push  r16
0005a6 931f                      	push  r17
                                 
0005a7 e001                      	ldi	  r16, HIGH(MIN_PERTURBACION)					; se utiliza para comparar el valor de lectura y saber si hubo alguna perturbacin
                                 	
                                 detectar_perturbacion_lectura:
0005a8 f096                      	brts  detectar_perturbacion_fin						; se utiliza para la funcin CONFIGURAR_MEDIDA
                                 	
0005a9 df56                      	rcall lectura_peso
0005aa dfa1                      	rcall set_scale	
0005ab 1630                      	cp    DATO_M, r16
0005ac f3d8                      	brlo  detectar_perturbacion_lectura
0005ad e014                      	ldi   r17, 4
                                 
                                 detectar_perturbacion_verificacion:
0005ae 951a                      	dec   r17
0005af f3c1                      	breq  detectar_perturbacion_lectura
0005b0 df4f                      	rcall lectura_peso
0005b1 df9a                      	rcall set_scale
0005b2 1630                      	cp    DATO_M, r16
0005b3 f7d0                      	brsh  detectar_perturbacion_verificacion
0005b4 e016                      	ldi   r17, NRO_MUESTRAS
                                 
                                 detectar_perturbacion_verificacion2:
0005b5 951a                      	dec   r17
0005b6 f389                      	breq  detectar_perturbacion_lectura
0005b7 df48                      	rcall lectura_peso
0005b8 df93                      	rcall set_scale
0005b9 1630                      	cp    DATO_M, r16
0005ba f3d0                      	brlo  detectar_perturbacion_verificacion2
                                 
                                 detectar_perturbacion_fin:
0005bb 911f                      	pop   r17
0005bc 910f                      	pop   r16
0005bd 9508                      	ret
                                 
                                 ; ----------------------------------------------------------------------
                                 ; DETECTAR_CANCELACION:
                                 ; La cancelacin se da en cualquier momento del proceso cuando el usuario
                                 ; hace una presin de ms de 4096 g. Esta funcin chequea el dato que recibe en DATO, 
                                 ; lo compara con 4096 g (0x1000) y si es es mayor, espera a que no haya nada  
                                 ; sobre la balanza y vuelve a setup. Se eligi 4096 g porque es solo comparar el segundo
                                 ; byte del dato con 0x10.
                                 ; ----------------------------------------------------------------------	
                                 detectar_cancelacion:	
0005be 930f                      	push r16
                                 
0005bf 2d03                      	mov  r16, DATO_M
0005c0 3100                      	cpi  r16, HIGH (VALOR_CANCELACION)
0005c1 f410                      	brsh proceso_cancelado
                                 	
0005c2 910f                      	pop  r16
0005c3 9508                      	ret
                                 
                                 proceso_cancelado:						
0005c4 931f                      	push  r17
                                 	
0005c5 e0fe                      	ldi   zh, HIGH(DIR_MSG_CANCELACION<<1)
0005c6 eee6                      	ldi   zl, LOW(DIR_MSG_CANCELACION<<1)
0005c7 d21e                      	rcall send_msg
                                 										; se debe volver al SETUP cuando no haya peso sobre la balanza
                                 										; y eso se dara cuando el dato sea igual al peso del vaso 
                                 										; que quedo guardado en VASO
                                 proceso_cancelado_loop:	
0005c8 e016                      	ldi    r17, NRO_MUESTRAS
0005c9 e004                      	ldi    r16, MARGEN_ERROR
                                 proceso_cancelado_lectura:
0005ca df35                      	rcall  lectura_peso	
0005cb df80                      	rcall  set_scale
                                 
0005cc 1828                      	sub    DATO_L, VASO_L				; se calcula el mdulo de la resta del DATO y el peso del VASO
0005cd 0839                      	sbc    DATO_M, VASO_M
0005ce 084a                      	sbc	   DATO_H, VASO_H
0005cf f408                      	brsh   proceso_cancelado_next
0005d0 dfa2                      	rcall  com_2
                                 
                                 proceso_cancelado_next:	
0005d1 2044                      	tst    DATO_H
0005d2 f7a9                      	brne   proceso_cancelado_loop
0005d3 2033                      	tst    DATO_M
0005d4 f799                      	brne   proceso_cancelado_loop
0005d5 1620                      	cp     DATO_L, r16
0005d6 f788                      	brsh   proceso_cancelado_loop
0005d7 951a                      	dec    r17
0005d8 f789                      	brne   proceso_cancelado_lectura
                                 	
0005d9 911f                      	pop    r17
0005da 910f                      	pop    r16
0005db 940c 0034                 	jmp    main
                                 
                                 ;-------------------------------------------------------------------------
                                 ; DETECTAR_VASO:
                                 ; Se tiene en cuenta que un vaso de virdio pesa aproximadamente 200gr. 
                                 ; La funcin lee un dato y compara con el valor mnimo de un vaso, 
                                 ; cuando detecta este valor se fija que en la siguientes lecturas que
                                 ; el valor sea aproximadamente el mismo. Guarda ese valor en VASO_H:VASO_L
                                 ; y setea la tara. 
                                 ;-------------------------------------------------------------------------
                                 
                                 detectar_vaso: 
0005dd 930f                      	push  r16
0005de 931f                      	push  r17
0005df 932f                      	push  r18
0005e0 933f                      	push  r19
0005e1 934f                      	push  r20
0005e2 935f                      	push  r21
                                 
0005e3 ec08                      	ldi   r16, VASO_MINIMO				; peso aproximado de un vaso de vidrio
0005e4 e014                      	ldi   r17, MARGEN_ERROR
                                 
                                 detectar_vaso_loop:
0005e5 e026                      	ldi   r18, NRO_MUESTRAS				; contador
                                 detectar_vaso_lectura:
0005e6 df19                      	rcall lectura_peso					; lee un dato y lo escala
0005e7 df64                      	rcall set_scale						
0005e8 dfd5                      	rcall detectar_cancelacion
                                 	
0005e9 2033                      	tst   DATO_M						
0005ea f411                      	brne  detectar_vaso_verificacion					
0005eb 1620                      	cp    DATO_L, r16					; compara el peso leido con el peso estandar de un vaso			
0005ec f3c8                      	brlo  detectar_vaso_lectura			; si no detecta un cambio vuelve a leer un peso
                                 	
                                 detectar_vaso_verificacion:				; la balanza envia 10 muestras por segundo por lo que la siguiente muestra sera a los 10 ms de la anterior
0005ed 2d32                      	mov   r19, DATO_L
0005ee 2d43                      	mov   r20, DATO_M
0005ef 2d54                      	mov   r21, DATO_H
                                 
0005f0 df0f                      	rcall lectura_peso					; lee un dato y lo escala
0005f1 df5a                      	rcall set_scale						
0005f2 dfcb                      	rcall detectar_cancelacion
                                 	
0005f3 1a23                      	sub   DATO_L, r19					; compara el siguiente valor leido con el anterior			
0005f4 0a34                      	sbc   DATO_M, r20
0005f5 0a45                      	sbc   DATO_H, r21
                                 	
0005f6 f408                      	brsh  detectar_vaso_next
0005f7 df7b                      	rcall com_2							; se toma el modulo de la diferencia de dos valores consecutivos
                                 
                                 detectar_vaso_next:
0005f8 2044                      	tst   DATO_H
0005f9 f759                      	brne  detectar_vaso_loop
0005fa 2033                      	tst   DATO_M
0005fb f749                      	brne  detectar_vaso_loop
0005fc 1621                      	cp    DATO_L, r17
0005fd f738                      	brsh  detectar_vaso_loop
0005fe 952a                      	dec   r18
0005ff f731                      	brne  detectar_vaso_lectura
                                 
000600 2e83                      	mov   VASO_L, r19
000601 2e94                      	mov   VASO_M, r20
000602 2ea5                      	mov   VASO_H, r21
                                 
000603 e0fe                      	ldi   zh, HIGH(DIR_MSG_AGUARDE<<1)	; Mensaje hasta que se setea la nueva tara
000604 e2ee                      	ldi   zl, LOW(DIR_MSG_AGUARDE<<1)
000605 d1e0                      	rcall send_msg
                                 
000606 df20                      	rcall set_tara						; setea la tara ahora con el vaso puesto
                                 	
000607 915f                      	pop   r21
000608 914f                      	pop   r20
000609 913f                      	pop   r19
00060a 912f                      	pop   r18
00060b 911f                      	pop   r17
00060c 910f                      	pop   r16
00060d 9508                      	ret
                                 	
                                 ;-------------------------------------------------------------------------
                                 ; CONFIGURAR_MEDIDA:
                                 ; Se espera 4 segundos a que el usuario golpee 2 veces para cambiar la medida.
                                 ; De otra forma, se selecciona la medida elegida y se guarda el valor en MEDIDA.
                                 ;-------------------------------------------------------------------------
                                 configurar_medida:
00060e 930f                      	push r16
00060f 931f                      	push r17
000610 932f                      	push r18
000611 93ef                      	push zl
000612 93ff                      	push zh
                                 
000613 ef10                      	ldi  r17, END_OF_MESSAGE
                                 
                                 configurar_medida_init:
000614 e0fe                      	ldi  zh, HIGH(DIR_MSG_PINTA<<1)
000615 e5e8                      	ldi  zl, LOW(DIR_MSG_PINTA<<1)		; Se inicializa en la medida pinta
                                 	
                                 configurar_medida_loop:
000616 d1cf                      	rcall send_msg						; envia el mensaje correspondiente a la medida cargada
                                 
000617 90b5                      	lpm  MEDIDA_L, Z+					; se guarda la medida seleccionada, cuyo valor esta a continuacion de su mensaje
000618 90c5                      	lpm  MEDIDA_H, Z+ 
                                 	
000619 16b1                      	cp   MEDIDA_L, r17					; si el siguiente valor es 0xF0, ya se recorrieron las 3 medidas
00061a f3c9                      	breq configurar_medida_init			; vuelve a comenzar por PINTA
                                 		
00061b da85                      	rcall delay_4s						; inicializa el delay de 4 seg
                                 	
00061c df88                      	rcall detectar_perturbacion			; se queda esperando una perturbacin, si en 4 segundos no detecto nada ya se seleccion una medida.
00061d f026                      	brts  configurar_medida_fin			; si esta el bit T=1 significa que pasaron 4 segundos dentro de la funcin detectar_perturbacion 
                                 	                                    ; y sale de la funcin con la medida seleccionada en MEDIDA
                                 
00061e e000                      	ldi   r16, (0<<TOIE0)				; se desactiva la interrupcin por overflow
00061f 9300 006e                 	sts   TIMSK0, r16
                                 	
000621 cff4                      	rjmp  configurar_medida_loop
                                  
                                 configurar_medida_fin:					; si pasaron 4 seg, de la subrutina de interrupcin se vuelve aqu	
000622 e000                      	ldi   r16, (0<<CS02)|(0<<CS01)|(0<<CS00)
000623 bd05                      	out   TCCR0B, r16					; config: se apaga el timer
                                 
000624 e000                      	ldi  r16, (0<<TOIE0)				; se desactiva la interrupcin por overflow
000625 9300 006e                 	sts  TIMSK0, r16
                                 	
000627 94e8                      	clt									; se pone en cero el flag T						
                                 
000628 91ff                      	pop   zh
000629 91ef                      	pop   zl
00062a 912f                      	pop   r18
00062b 911f                      	pop   r17
00062c 910f                      	pop   r16
00062d 9508                      	ret	
                                 
                                 ;-------------------------------------------------------------------------
                                 ; FIN_PROGRAMA:
                                 ; funcin que aguarda a que retiren el vaso de la plataforma. Considerando
                                 ; que el peso del vaso quedo guardado en VASO_H:VASO_L, la funcin lee datos
                                 ; de la celda hasta encontrar NRO_MUESTRAS muestras consecutivas cuyo valor
                                 ; sean iguales a VASO con un margen de error de MARGEN_ERROR
                                 ;-------------------------------------------------------------------------
                                 
                                 fin_programa:
00062e 930f                      	push  r16
00062f 931f                      	push  r17
                                 
000630 e014                      	ldi   r17, MARGEN_ERROR
                                 				
                                 fin_programa_loop:
000631 e006                      	ldi   r16, NRO_MUESTRAS
                                 fin_programa_lectura:
000632 decd                      	rcall lectura_peso
000633 df18                      	rcall set_scale
                                 
000634 1828                      	sub   DATO_L, VASO_L							
000635 0839                      	sbc   DATO_M, VASO_M
000636 084a                      	sbc   DATO_H, VASO_H
                                 
000637 f408                      	brsh  fin_programa_next
000638 df3a                      	rcall com_2							; se obtiene el modulo de la resta
                                 
                                 fin_programa_next:
000639 2044                      	tst   DATO_H
00063a f7b1                      	brne  fin_programa_loop
00063b 2033                      	tst   DATO_M
00063c f7a1                      	brne  fin_programa_loop
00063d 1621                      	cp    DATO_L, r17
00063e f790                      	brsh  fin_programa_loop				; se compara el modulo de la resta con el marge de error
00063f 950a                      	dec   r16
000640 f789                      	brne  fin_programa_lectura			; cuando se leen NRO_MUESTRAS datos, cuya resta con el peso del vaso es menor al margen 
                                 										; de error, es porque retiraron el vaso
000641 911f                      	pop  r17
000642 910f                      	pop  r16
                                 .include "output.asm"
000643 9508                      
                                 .org  0x700
000700 2020
000701 5320
000702 482e
000703 492e
000704 562e
000705 412e
000706 202e
000707 470a
000708 6c6f
000709 6570
00070a 2065
00070b 2032
00070c 6576
00070d 6563
00070e f073                      	DIR_MSG_INICIO:          .DB "   S.H.I.V.A. ", '\n', "Golpee 2 veces", END_OF_MESSAGE     
00070f 6f43
000710 6f6c
000711 7571
000712 2065
000713 6e75
000714 7620
000715 7361
000716 f06f                      	DIR_MSG_ESPERA_VASO:     .DB "Coloque un vaso", END_OF_MESSAGE
000717 6741
000718 6175
000719 6472
00071a 2e65
00071b 2e2e
00071c f020                      	DIR_MSG_AGUARDE:		 .DB "Aguarde... ", END_OF_MESSAGE
00071d 6c45
00071e 6a69
00071f 2061
000720 616c
000721 6d20
000722 6465
000723 6469
000724 2061
000725 630a
000726 6e6f
000727 3220
000728 6720
000729 6c6f
00072a 6570
00072b f073                      	DIR_MSG_CONFIGURACION:   .DB "Elija la medida ", '\n', "con 2 golpes", END_OF_MESSAGE
                                 	
00072c 4950
00072d 544e
00072e 2041
00072f 3428
000730 3337
000731 6c6d
000732 0a29
000733 6f47
000734 706c
000735 6565
000736 7020
000737 7261
000738 2061
000739 746f
00073a 6172
00073b f02e                      	DIR_MSG_PINTA:           .DB "PINTA (473ml)", '\n', "Golpee para otra.", END_OF_MESSAGE
00073c 01d9                      	MEDIDA_PINTA:			 .DB LOW(473), HIGH(473)
                                 
                                 	
00073d 4843
00073e 504f
00073f 2050
000740 3328
000741 3035
000742 6c6d
000743 0a29
000744 6f47
000745 706c
000746 6565
000747 7020
000748 7261
000749 2061
00074a 746f
00074b 6172
00074c f02e                      	DIR_MSG_CHOPP:           .DB "CHOPP (350ml)", '\n', "Golpee para otra.", END_OF_MESSAGE
00074d 015e                      	MEDIDA_CHOP:			 .DB LOW(350), HIGH(350)
                                 		
00074e 2f31
00074f 2032
000750 4950
000751 544e
000752 2841
000753 3532
000754 6d30
000755 296c
000756 0a20
000757 6f47
000758 706c
000759 6565
00075a 7020
00075b 7261
00075c 2061
00075d 746f
00075e 6172
00075f f02e                      	DIR_MSG_MEDIA_PINTA:     .DB "1/2 PINTA(250ml) ", '\n', "Golpee para otra.", END_OF_MESSAGE 
000760 00fa
000761 f0f0
000762 f0f0                      	MEDIDA_MEDIAPINTA:       .DB LOW(250), HIGH(250), END_OF_MESSAGE, END_OF_MESSAGE, END_OF_MESSAGE, END_OF_MESSAGE
                                 
000763 6953
000764 7672
000765 2e61
000766 2e2e
000767 f00a                      	DIR_MSG_SIRVIENDO:       .DB "Sirva...", '\n', END_OF_MESSAGE
000768 7550
000769 6465
00076a 2065
00076b 6572
00076c 6974
00076d 6172
00076e 0a72
00076f 6c65
000770 7620
000771 7361
000772 f06f                      	DIR_MSG_FIN:			 .DB "Puede retirar",'\n', "el vaso", END_OF_MESSAGE
000773 2020
000774 2020
000775 7250
000776 636f
000777 7365
000778 206f
000779 200a
00077a 2020
00077b 6163
00077c 636e
00077d 6c65
00077e 6461
00077f f06f                      	DIR_MSG_CANCELACION:     .DB "    Proceso ",'\n', "   cancelado", END_OF_MESSAGE 
                                 
                                 ;-------------------------------------------------------------------------
                                 ; DECLINACION_INIT:
                                 ; Funcion que setea el servo en la posicion de mayor inclinacion de la
                                 ; plataforma. Redefine el Output comapre register para lograr un pwm de 2 ms 
                                 ; de tiempo en alto.
                                 ;-------------------------------------------------------------------------
                                 declinacion_init:
000780 930f                      	push r16
                                 	
000781 e001                      	ldi  r16, HIGH(POS_MAYOR_INCLINACION)
000782 9300 0089                 	sts  OCR1AH, r16
                                 
000784 e601                      	ldi  r16, LOW(POS_MAYOR_INCLINACION)
000785 9300 0088                 	sts  OCR1AL, r16
                                 
000787 910f                      	pop  r16
000788 9508                      	ret
                                 
                                 ;-------------------------------------------------------------------------
                                 ; PROCESO_DECLINACION:
                                 ; funcin para el proceso de declinacin del vaso en base de la cantidad
                                 ; de liquido servido. La plataforma (servo) posee 32 posiciones de inclinacin y 
                                 ; el vaso empieza en la posicin 32, y comienza a declinarse cuando
                                 ; la cantidad de lquido servida es igual a la mitad de la medida elegida.
                                 ; Se define un valor PASO = MEDIDA/64 y un TECHO que arranca en PASO,
                                 ; y cada vez que el peso supera el TECHO, se redefine TECHO = TECHO + PASO.
                                 ; Cuando el techo es mas grande que la mitad de la MEDIDA se declina el servo cada
                                 ; vez que se supera TECHO. 
                                 ; Adems, por la pantalla se muestra el avance del proceso a medida que se sirve. 
                                 ; Para ello, cada cuatro incrementos del TECHO, se envia un caracter negro a la pantalla.
                                 ;-------------------------------------------------------------------------
                                 
                                 
                                 proceso_declinacion:
000789 930f                      	push  r16
00078a 936f                      	push  MEDIDA_MITAD_L
00078b 937f                      	push  MEDIDA_MITAD_H
00078c 933f                      	push  TECHO_L
00078d 934f                      	push  TECHO_H
00078e 935f                      	push  PASO
                                 
00078f 2d6b                      	mov   MEDIDA_MITAD_L, MEDIDA_L					; obtenemos la mitad de la medida que es cuando se comienza a declinar el vaso
000790 2d7c                      	mov   MEDIDA_MITAD_H, MEDIDA_H
000791 9576                      	lsr   MEDIDA_MITAD_H							
000792 9567                      	ror   MEDIDA_MITAD_L							
                                 
000793 2f56                      	mov   PASO, MEDIDA_MITAD_L						; se divide el rango de valores que va desde MEDIDA/2 HASTA MEDIDA,
000794 9556                      	lsr   PASO										; por 32, que son las cantidad de posiciones que tiene la paltaforma.
000795 9556                      	lsr   PASO										; que equivale a divir el valor de la MEDIDA por 64.
000796 9556                      	lsr   PASO
000797 9556                      	lsr   PASO
000798 9556                      	lsr   PASO
                                 
000799 2744                      	clr  TECHO_H									
00079a 2733                      	clr  TECHO_L
                                 
                                 proceso_declinacion_loop:
00079b e004                      	ldi   r16, 4									; contador para enviar caracteres que indican el avance del proceso
                                 
                                 proceso_declinacion_techo:
00079c 0f35                      	add   TECHO_L, PASO								; defino el techo como TECHO = TECHO + PASO
00079d f408                      	brcc  proceso_declinacion_techo_next
00079e 9543                      	inc   TECHO_H
                                 
                                 proceso_declinacion_techo_next:
00079f 16c4                      	cp    MEDIDA_H, TECHO_H 						; si MEDIDA_H < TECHO_H ==> MEDIDA < TECHO entonces se termina el proceso
0007a0 f0a0                      	brlo  proceso_declinacion_fin
                                 	
0007a1 154c                      	cp    TECHO_H, MEDIDA_H							; ya se que MEDIDA_H >= TECHO_H, asi que verifico si se cumple la igualdad o el techo es mayor 
0007a2 f010                      	brlo  proceso_declinacion_lectura
                                 	
0007a3 153b                      	cp    TECHO_L, MEDIDA_L							; si esta aca MEDIDA_H = TECHO_H
0007a4 f480                      	brsh  proceso_declinacion_fin					; si TECHO_L > MEDIDA_L => TECHO > MEDIDA y termina el proceso
                                 
                                 proceso_declinacion_lectura:
0007a5 dd5a                      	rcall lectura_peso								; se lee un dato y se escala
0007a6 dda5                      	rcall set_scale
0007a7 de16                      	rcall detectar_cancelacion
                                 
0007a8 1634                      	cp    DATO_M, TECHO_H							; se compara el valor leido con el techo
0007a9 f3d8                      	brlo  proceso_declinacion_lectura				; mientras el dato sea menor que el techo se sigue leyendo 
0007aa 1623                      	cp    DATO_L, TECHO_L
0007ab f3c8                      	brlo  proceso_declinacion_lectura
                                 	
0007ac 1774                      	cp    MEDIDA_MITAD_H, TECHO_H					; se compara el dato leido con la mitad de la medida para 
0007ad f010                      	brlo  proceso_declinacion_servo					; ver si se tiene que declinar la plataforma
0007ae 1736                      	cp    TECHO_L, MEDIDA_MITAD_L
0007af f008                      	brlo  proceso_declinacion_step
                                 
                                 proceso_declinacion_servo:
0007b0 d00c                      	rcall mover_servo
                                 	 
                                 proceso_declinacion_step:
0007b1 950a                      	dec   r16										; si se increment 4 veces el TECHO, enva el caracter en negro 
0007b2 f749                      	brne  proceso_declinacion_techo
0007b3 d056                      	rcall send_black_char
0007b4 cfe6                      	rjmp  proceso_declinacion_loop
                                 
                                 proceso_declinacion_fin:
0007b5 dddd                      	rcall servo_init								; cuando se llego a la medida seleccionada se lleva el servo a la posicin final
                                 													; en caso que haya faltado algun decremento de la plataforma
0007b6 915f                      	pop   PASO
0007b7 914f                      	pop   TECHO_H
0007b8 913f                      	pop   TECHO_L
0007b9 917f                      	pop   MEDIDA_MITAD_H
0007ba 916f                      	pop   MEDIDA_MITAD_L
0007bb 910f                      	pop   r16
0007bc 9508                      	ret
                                 ;-------------------------------------------------------------------------
                                 ; MOVER_SERVO:
                                 ; Decrementa en uno la posicin actual del servo y con eso, la de la plataforma.
                                 ;-------------------------------------------------------------------------
                                 mover_servo:
0007bd 930f                      	push  r16
0007be 931f                      	push  r17
                                 
0007bf 9100 0088                 	lds   r16, OCR1AL								; cuando el valor leido es mayor al techo se decrementa la posicin del servo
0007c1 9110 0089                 	lds   r17, OCR1AH								; decrementando el Output Compare Register y achicando asi el pulso del PWM
                                 	
0007c3 5001                      	subi  r16, 0x01								
0007c4 f408                      	brcc  mover_servo_next
0007c5 951a                      	dec   r17
                                 
                                 mover_servo_next:
0007c6 3011                      	cpi   r17, HIGH(313+8)							; por seguridad se compara la nueva posicin con la mnima posicin posible del servo
0007c7 f030                      	brlo  mover_servo_fin							; si es mas chica salgo de la funcin
0007c8 3401                      	cpi   r16, LOW(313+8)
0007c9 f020                      	brlo  mover_servo_fin
                                 
0007ca 9310 0089                 	sts   OCR1AH, r17								
0007cc 9300 0088                 	sts   OCR1AL, r16
                                 
                                 mover_servo_fin:
0007ce 911f                      	pop  r17
0007cf 910f                      	pop  r16
0007d0 9508                      	ret
                                 
                                 ;-------------------------------------------------------------------------
                                 ; SEND_COMMAND:
                                 ; Recibe el registro r16 cargado con una configuracin. Luego
                                 ; lo enva a la pantalla LCD.
                                 ;-------------------------------------------------------------------------
                                 send_command:
0007d1 931f                      	push  r17
                                 
0007d2 2f10                      	mov   r17, r16				; se mandan los 4 bits mas significativos primero
0007d3 7f10                      	andi  r17, 0xF0
0007d4 b91b                      	out   LCD_DPRT, r17
0007d5 982c                      	cbi   LCD_CPRT, LCD_RS		; RS = 0 es para mandar comandos
0007d6 982b                      	cbi   LCD_CPRT, LCD_RW
0007d7 9a2a                      	sbi   LCD_CPRT, LCD_E
0007d8 d8a3                      	rcall delay_500ns 
0007d9 982a                      	cbi   LCD_CPRT,LCD_E
                                 
0007da 2f10                      	mov   r17, r16				; ahora los 4 bits restantes
0007db 9512                      	swap  r17
0007dc 7f10                      	andi  r17, 0xF0
0007dd b91b                      	out   LCD_DPRT, r17
0007de 982c                      	cbi   LCD_CPRT, LCD_RS		; RS = 0 es para mandar comandos
0007df 982b                      	cbi   LCD_CPRT, LCD_RW
0007e0 9a2a                      	sbi   LCD_CPRT, LCD_E
0007e1 d89a                      	rcall delay_500ns 
0007e2 982a                      	cbi   LCD_CPRT,LCD_E
                                 
0007e3 d8a1                      	rcall delay_100us
0007e4 911f                      	pop  r17
0007e5 9508                      	ret
                                 
                                 ;-------------------------------------------------------------------------
                                 ; SEND_MSG:
                                 ; Recibe el puntero Z cargado con un mensaje guardado en memoria ROM. Luego
                                 ; lo enva por la pantalla LCD. Los mensajes tienen un formato definido,
                                 ; terminan con END_OF_MESSAGE y si son de dos lneas, la separacin entre ellas se indica
                                 ; con el caracter '\n'.
                                 ;-------------------------------------------------------------------------
                                 send_msg:
0007e6 930f                      	push  r16
0007e7 931f                      	push  r17
                                 
0007e8 e001                      	ldi   r16, CLEAR_DISPLAY	; Borra la pantalla
0007e9 dfe7                      	rcall send_command			
0007ea d8a8                      	rcall delay_3ms
                                 
                                 send_msg_loop:
0007eb 9105                          lpm  r16, Z+
                                 	
0007ec 3f00                      	cpi  r16, END_OF_MESSAGE	; Me fijo si termin el mensaje
0007ed f0c9                      	breq send_msg_fin
0007ee 300a                      	cpi  r16, '\n'				; Me fijo si el mensaje tiene una segunda parte
0007ef f421                      	brne send_msg_next
                                 
0007f0 ec00                      	ldi   r16, CURSOR_LINE_2	; Fuerza el cursor a la 2da lnea
0007f1 dfdf                      	rcall send_command			
0007f2 d8a0                      	rcall delay_3ms	
0007f3 cff7                      	rjmp  send_msg_loop
                                 
                                 send_msg_next:	
0007f4 2f10                      	mov   r17, r16				; se mandan los 4 bits mas significativos primero
0007f5 7f10                      	andi  r17, 0xF0
0007f6 b91b                      	out   LCD_DPRT, r17
0007f7 9a2c                      	sbi   LCD_CPRT, LCD_RS		; RS = 1 es para mandar datos
0007f8 982b                      	cbi   LCD_CPRT, LCD_RW
0007f9 9a2a                      	sbi   LCD_CPRT, LCD_E
0007fa d881                      	rcall delay_500ns 
0007fb 982a                      	cbi   LCD_CPRT,LCD_E
                                 
0007fc 2f10                      	mov   r17, r16				; ahora los 4 bits restantes
0007fd 9512                      	swap  r17
0007fe 7f10                      	andi  r17, 0xF0
0007ff b91b                      	out   LCD_DPRT, r17
000800 9a2c                      	sbi   LCD_CPRT, LCD_RS		; RS = 1 es para mandar datos
000801 982b                      	cbi   LCD_CPRT, LCD_RW
000802 9a2a                      	sbi   LCD_CPRT, LCD_E
000803 d878                      	rcall delay_500ns 
000804 982a                      	cbi   LCD_CPRT,LCD_E
000805 d87f                      	rcall delay_100us
000806 cfe4                      	rjmp  send_msg_loop
                                 send_msg_fin:		
000807 911f                      	pop  r17
000808 910f                      	pop  r16
000809 9508                      	ret
                                 
                                 ;-------------------------------------------------------------------------
                                 ; SEND_BLACK_CHAR:
                                 ; manda un caracter en negro cuyo valor ASCII es 0xFF.
                                 ;-------------------------------------------------------------------------
                                 send_black_char:
00080a 931f                      	push  r17
                                 
00080b ef1f                      	ldi   r17, 0xFF					; se mandan los 4 bits mas significativos primero
00080c 7f10                      	andi  r17, 0xF0
00080d b91b                      	out   LCD_DPRT, r17
00080e 9a2c                      	sbi   LCD_CPRT, LCD_RS			; RS = 1 es para mandar datos
00080f 982b                      	cbi   LCD_CPRT, LCD_RW
000810 9a2a                      	sbi   LCD_CPRT, LCD_E
000811 d86a                      	rcall delay_500ns 
000812 982a                      	cbi   LCD_CPRT,LCD_E
                                 
000813 ef1f                      	ldi   r17, 0xFF					; ahora los 4 bits restantes
000814 9512                      	swap  r17
000815 7f10                      	andi  r17, 0xF0
000816 b91b                      	out   LCD_DPRT, r17
000817 9a2c                      	sbi   LCD_CPRT, LCD_RS			; RS = 1 es para mandar datos
000818 982b                      	cbi   LCD_CPRT, LCD_RW
000819 9a2a                      	sbi   LCD_CPRT, LCD_E
00081a d861                      	rcall delay_500ns 
00081b 982a                      	cbi   LCD_CPRT,LCD_E
                                 
00081c d868                      	rcall delay_100us
                                 	
00081d 911f                      	pop  r17
00081e 9508                      	ret
                                 
                                 ;-------------------------------------------------------------------------
                                 ; VARIABLES EN REGISTROS
                                 ;-------------------------------------------------------------------------
                                 .def VASO_H	= r10
                                 .def VASO_M	= r9
                                 .def VASO_L = r8
                                 
                                 ;-------------------------------------------------------------------------
                                 ; CDIGO
                                 ;-------------------------------------------------------------------------
                                 		.cseg 
                                 .org	0x00
000000 940c 0034                 	jmp main
                                 
                                 .org	OVF1addr
00001a 940c 005d                 	jmp INT_TIMER1_OVF
                                 
                                 .org   OVF0addr
000020 940c 0066                 	jmp INT_TIMER0_OVF
                                 
                                 .org INT_VECTORS_SIZE
                                 
                                 main:
000034 e008                      	ldi	 r16, HIGH(RAMEND)
000035 bf0e                      	out  sph, r16
000036 ef0f                      	ldi  r16, LOW(RAMEND)
000037 bf0d                      	out  spl, r16								; inicializo el stack pointer al final de la RAM
                                     
000038 9478                      	sei											; se activan las interrupciones
                                 
000039 d543                      	rcall configuracion_puertos					; se inicilizan los puertos, la pantalla y el servo
00003a d558                      	rcall servo_init
00003b d54e                      	rcall LCD_init
                                 
00003c 24aa                      	clr   VASO_H
00003d 2499                      	clr   VASO_M
00003e 2488                      	clr   VASO_L
                                 	
00003f e0fe                      	ldi   zh, HIGH(DIR_MSG_AGUARDE<<1)			; Se envia el mensaje de aguarde hasta que se termina de configurar la tara
000040 e2ee                      	ldi   zl, LOW(DIR_MSG_AGUARDE<<1)
000041 d7a4                      	rcall send_msg
                                 
000042 d4e4                      	rcall set_tara								; Setea el peso 0 de la balanza
                                 	
000043 e0fe                      	ldi   zh, HIGH(DIR_MSG_INICIO<<1)			; se envia el mensaje de inicio
000044 e0e0                      	ldi   zl, LOW(DIR_MSG_INICIO<<1)
000045 d7a0                      	rcall send_msg
                                 
000046 d55e                      	rcall detectar_perturbacion					; espera a que haya una perturbacin para iniciar el proceso
                                 	
000047 e0fe                      	ldi   zh, HIGH(DIR_MSG_ESPERA_VASO<<1)		; mensaje hasta que se detecta un peso que equivale a un vaso
000048 e1ee                      	ldi   zl, LOW(DIR_MSG_ESPERA_VASO<<1)
000049 d79c                      	rcall send_msg
                                 		
00004a d592                      	rcall detectar_vaso
                                 
00004b e0fe                      	ldi   zh, HIGH(DIR_MSG_CONFIGURACION<<1)	; mensaje para elegir medida
00004c e3ea                      	ldi   zl, LOW(DIR_MSG_CONFIGURACION<<1)
00004d d798                      	rcall send_msg
00004e d01b                      	rcall delay_3seg							; se muestra el mensaje durante 3 segundos
                                 	
00004f d5be                      	rcall configurar_medida
                                 	
000050 e0fe                      	ldi   zh, HIGH(DIR_MSG_AGUARDE<<1)			
000051 e2ee                      	ldi   zl, LOW(DIR_MSG_AGUARDE<<1)
000052 d793                      	rcall send_msg
                                 
000053 d72c                      	rcall declinacion_init						; inclina la plataforma a la posicion inicial de mayor inclinacion
                                 	
000054 e0fe                      	ldi   zh, HIGH(DIR_MSG_SIRVIENDO<<1)		; mensaje que le indica al usuario que le puede comenzar a servir
000055 ece6                      	ldi   zl, LOW(DIR_MSG_SIRVIENDO<<1)
000056 d78f                      	rcall send_msg
                                 	
000057 d731                      	rcall proceso_declinacion   
                                 	
000058 e0fe                      	ldi   zh, HIGH(DIR_MSG_FIN<<1)				; mensaje que le indica al usuario que puede retirar el vaso
000059 ede0                      	ldi   zl, LOW(DIR_MSG_FIN<<1)
00005a d78b                      	rcall send_msg
                                 	
00005b d5d2                      	rcall fin_programa							; aguarda a que retiren el vaso 
                                 	 
00005c cfd7                      	rjmp main
                                 
                                 ;-------------------------------------------------------------------------
                                 ; FUNCIONES
                                 ;-------------------------------------------------------------------------
                                 
                                 
                                 ;-------------------------------------------------------------------------
                                 ; INT_TIMER1_0VF:
                                 ; rutina de interrupcion vinculada al Timer1, que controla el pwm del servo.
                                 ;-------------------------------------------------------------------------
                                 INT_TIMER1_OVF:
00005d 930f                      	push r16
                                 
00005e e001                      	ldi  r16, HIGH(313)
00005f 9300 0085                 	sts  TCNT1H, r16
000061 e309                      	ldi  r16, LOW(313)
000062 9300 0084                 	sts  TCNT1L, r16
                                 
000064 910f                      	pop  r16
000065 9518                      	reti
                                 
                                 ;-------------------------------------------------------------------------
                                 ; INT_TIMER0_OVF:
                                 ; rutina de interrupcion vinculada al Timer1, que controla el delay de los 4
                                 ; segundos que posee el usuario para ir cambiando de medida
                                 ;-------------------------------------------------------------------------
                                 INT_TIMER0_OVF:
000066 957a                      	dec  r23
000067 f409                      	brne int_next								; hasta que el contador no llega a 0 no pasaron los 4 segundos
000068 9468                      	set											; se activa el flag T para salir de la funcion detectar_perturbacion cuando pasaron los 4 segundos										
                                 int_next:	
000069 9518                      	reti
                                 
                                 ; ----------------------------------------------------------------------
                                 ; DELAY_3seg:
                                 ; Delay de 3 segundos 
                                 ; ----------------------------------------------------------------------
                                 delay_3seg:
00006a 930f                      	push r16
                                 
00006b e000                      	ldi r16, 0
00006c bd06                      	out TCNT0, r16					; se inicializa el contador
                                 	
00006d 2700                      	clr r16
00006e bd04                      	out TCCR0A, r16		
                                 	
00006f e005                      	ldi r16, (1<<CS02)|(0<<CS01)|(1<<CS00)
000070 bd05                      	out TCCR0B, r16					; config: modo normal, con prescaler = 1024
                                 
000071 eb08                      	ldi r16, 184
                                 delay_3seg_loop:
000072 9ba8                      	sbis TIFR0, TOV0
000073 cffe                      	rjmp delay_3seg_loop
000074 9aa8                      	sbi  TIFR0, TOV0				; se setea el flag TOV0 para dejarlo en 0
000075 950a                      	dec  r16
000076 f7d9                      	brne delay_3seg_loop
000077 2700                      	clr  r16
000078 bd05                      	out  TCCR0B, r16				; se apaga el timer
000079 9aa8                      	sbi  TIFR0, TOV0				; se setea el flag TOV0 para dejarlo en 0
                                 
00007a 910f                      	pop r16
00007b 9508                      	ret	
                                 ; ----------------------------------------------------------------------
                                 ; DELAY_500ns:
                                 ; Delay de 500ns 
                                 ; ----------------------------------------------------------------------
                                 delay_500ns:
00007c 0000                      	nop
00007d 0000                      	nop
00007e 0000                      	nop
00007f 0000                      	nop
000080 0000                      	nop
000081 0000                      	nop
000082 0000                      	nop
000083 0000                      	nop
000084 9508                      	ret
                                 
                                 ; -------------------------------------------------------------------------
                                 ; DELAY_100us:
                                 ; funcion de delay de 100 us. 
                                 ; Calculo de delay: (256-VALOR_INICIAL_TCNT0) * PRESCALER / fclk
                                 ; -------------------------------------------------------------------------
                                 
                                 delay_100us:
000085 930f                      	push r16
                                 
000086 ef08                      	ldi r16, 248
000087 bd06                      	out TCNT0, r16					; se inicializa el contador
                                 	
000088 2700                      	clr r16
000089 bd04                      	out TCCR0A, r16		
                                 	
00008a e004                      	ldi r16, (1<<CS02)|(0<<CS01)|(0<<CS00)
00008b bd05                      	out TCCR0B, r16					; config: modo normal, con prescaler = 256
                                 delay_100us_loop:
00008c 9ba8                      	sbis TIFR0, TOV0
00008d cffe                      	rjmp delay_100us_loop
00008e 2700                      	clr  r16
00008f bd05                      	out  TCCR0B, r16				; se apaga el timer
000090 9aa8                      	sbi  TIFR0, TOV0				; se setea el flag TOV0 para dejarlo en 0
                                 
000091 910f                      	pop r16
000092 9508                      	ret
                                 
                                 ; -------------------------------------------------------------------------
                                 ; DELAY_3ms:
                                 ; funcion de delay de 3 ms. 
                                 ; Calculo de delay: (256-VALOR_INICIAL_TCNT0) * PRESCALER / fclk
                                 ; -------------------------------------------------------------------------
                                 delay_3ms:
000093 930f                      	push r16
                                 
000094 e405                      	ldi r16, 69
000095 bd06                      	out TCNT0, r16					; se inicializa el contador
                                 	
000096 2700                      	clr r16
000097 bd04                      	out TCCR0A, r16		
                                 	
000098 e004                      	ldi r16, (1<<CS02)|(0<<CS01)|(0<<CS00)
000099 bd05                      	out TCCR0B, r16					; config: modo normal, con prescaler = 256
                                 delay_3ms_loop:
00009a 9ba8                      	sbis TIFR0, TOV0
00009b cffe                      	rjmp delay_3ms_loop
00009c 2700                      	clr  r16
00009d bd05                      	out  TCCR0B, r16				; se apaga el timer
00009e 9aa8                      	sbi  TIFR0, TOV0				; se setea el flag TOV0 para dejarlo en 0
                                 
00009f 910f                      	pop r16
0000a0 9508                      	ret
                                 
                                 ; -------------------------------------------------------------------------
                                 ; DELAY_4s:
                                 ; funcion que activa un delay de 4 seg, que es el tiempo que tendra el 
                                 ; usuario para ir cambiando de medida de vaso.
                                 ; -------------------------------------------------------------------------
                                 delay_4s:
0000a1 930f                      	push  r16
                                 
0000a2 2700                      	clr   r16							
0000a3 bd06                      	out   TCNT0, r16					; se inicializa el contador en 0 	
                                 
0000a4 2700                      	clr   r16
0000a5 bd04                      	out   TCCR0A, r16					; config: modo normal, OC0A y OC0B desconectados 
                                 	
0000a6 e005                      	ldi   r16, (1<<CS02)|(0<<CS01)|(1<<CS00)
0000a7 bd05                      	out   TCCR0B, r16					; config: modo normal, con prescaler = 1024
                                 
0000a8 e001                      	ldi  r16, (1<<TOIE0)				; se activa la interrupcion por overflow
0000a9 9300 006e                 	sts  TIMSK0, r16
                                 
0000ab ef74                      	ldi  r23, 244						; se inicializa el contador para el delay de 4 s
                                 	
0000ac 9478                      	sei 
                                 	
0000ad 910f                      	pop  r16
0000ae 9508                      	ret
                                 
                                 
                                 
                                 


RESOURCE USE INFORMATION
------------------------

Notice:
The register and instruction counts are symbol table hit counts,
and hence implicitly used resources are not counted, eg, the
'lpm' instruction without operands implicitly uses r0 and z,
none of which are counted.

x,y,z are separate entities in the symbol table and are
counted separately from r26..r31 here.

.dseg memory usage only counts static data declared with .byte

"ATmega328P" register use summary:
x  :   0 y  :   0 z  :   3 r0 :   3 r1 :   3 r2 :  16 r3 :  21 r4 :  16 
r5 :   3 r6 :   3 r7 :   3 r8 :   4 r9 :   4 r10:   4 r11:   4 r12:   4 
r13:   0 r14:   0 r15:   0 r16: 155 r17:  69 r18:  18 r19:  24 r20:  24 
r21:  14 r22:   6 r23:   7 r24:   0 r25:   0 r26:   0 r27:   0 r28:   0 
r29:   0 r30:  12 r31:  12 
Registers used: 24 out of 35 (68.6%)

"ATmega328P" instruction use summary:
.lds  :   0 .sts  :   0 adc   :   6 add   :   4 adiw  :   0 and   :   0 
andi  :   6 asr   :   0 bclr  :   0 bld   :   0 brbc  :   0 brbs  :   0 
brcc  :   4 brcs  :   1 break :   0 breq  :   4 brge  :   0 brhc  :   0 
brhs  :   0 brid  :   0 brie  :   0 brlo  :  11 brlt  :   0 brmi  :   0 
brne  :  18 brpl  :   1 brsh  :   9 brtc  :   0 brts  :   2 brvc  :   0 
brvs  :   0 bset  :   0 bst   :   0 call  :   0 cbi   :  17 cbr   :   0 
clc   :   0 clh   :   0 cli   :   0 cln   :   0 clr   :  26 cls   :   0 
clt   :   1 clv   :   0 clz   :   0 com   :   2 cp    :  15 cpc   :   0 
cpi   :   5 cpse  :   0 dec   :  13 eor   :   0 fmul  :   0 fmuls :   0 
fmulsu:   0 icall :   0 ijmp  :   0 in    :   0 inc   :   4 jmp   :   4 
ld    :   0 ldd   :   0 ldi   :  68 lds   :   2 lpm   :   3 lsl   :   1 
lsr   :   8 mov   :  25 movw  :   0 mul   :   3 muls  :   0 mulsu :   0 
neg   :   1 nop   :  16 or    :   0 ori   :   0 out   :  25 pop   :  52 
push  :  51 rcall :  73 ret   :  24 reti  :   2 rjmp  :  10 rol   :   0 
ror   :   6 sbc   :   8 sbci  :   0 sbi   :  22 sbic  :   3 sbis  :   3 
sbiw  :   0 sbr   :   0 sbrc  :   0 sbrs  :   0 sec   :   0 seh   :   0 
sei   :   2 sen   :   0 ser   :   0 ses   :   0 set   :   1 sev   :   0 
sez   :   0 sleep :   0 spm   :   0 st    :   0 std   :   0 sts   :  14 
sub   :   4 subi  :   1 swap  :   3 tst   :   8 wdr   :   0 
Instructions used: 48 out of 113 (42.5%)

"ATmega328P" memory use summary [bytes]:
Segment   Begin    End      Code   Data   Used    Size   Use%
---------------------------------------------------------------
[.cseg] 0x000000 0x00103e   1224    256   1480   32768   4.5%
[.dseg] 0x000100 0x000100      0      0      0    2048   0.0%
[.eseg] 0x000000 0x000000      0      0      0    1024   0.0%

Assembly complete, 0 errors, 0 warnings
